

Microchip MPLAB XC8 Assembler V2.05 build -831301201 
                                                                                               Sun May 19 15:32:27 2019

Microchip MPLAB XC8 C Compiler v2.05 (Free license) build 20181220022703 Og1 
     1                           	processor	16F1829
     2                           	opt	pw 120
     3                           	opt	flic
     4                           	psect	stringtext1,global,class=STRCODE,delta=2
     5                           	psect	stringtext2,global,class=STRCODE,delta=2
     6                           	psect	stringtext3,global,class=STRCODE,delta=2
     7                           	psect	stringtext4,global,class=STRCODE,delta=2
     8                           	psect	cinit,global,class=CODE,merge=1,delta=2
     9                           	psect	bssCOMMON,global,class=COMMON,space=1,delta=1
    10                           	psect	bssBANK0,global,class=BANK0,space=1,delta=1
    11                           	psect	clrtext,global,class=CODE,delta=2
    12                           	psect	cstackCOMMON,global,class=COMMON,space=1,delta=1
    13                           	psect	cstackBANK0,global,class=BANK0,space=1,delta=1
    14                           	psect	maintext,global,class=CODE,merge=1,split=1,delta=2
    15                           	psect	text1,local,class=CODE,merge=1,delta=2
    16                           	psect	text2,local,class=CODE,merge=1,delta=2
    17                           	psect	text3,local,class=CODE,merge=1,delta=2
    18                           	psect	text4,local,class=CODE,merge=1,delta=2
    19                           	psect	text5,local,class=CODE,merge=1,delta=2
    20                           	psect	text6,local,class=CODE,merge=1,delta=2
    21                           	psect	text7,local,class=CODE,merge=1,delta=2
    22                           	psect	text8,local,class=CODE,merge=1,delta=2
    23                           	psect	text9,local,class=CODE,merge=1,delta=2,group=2
    24                           	psect	text10,local,class=CODE,merge=1,delta=2
    25                           	psect	intentry,global,class=CODE,delta=2
    26                           	dabs	1,0x620,48
    27                           	dabs	1,0x5A0,80
    28                           	dabs	1,0x2370,0,_uartRXBuff
    29                           	dabs	1,0x7E,2
    30  0000                     
    31                           ; Version 2.05
    32                           ; Generated 20/12/2018 GMT
    33                           ; 
    34                           ; Copyright © 2018, Microchip Technology Inc. and its subsidiaries ("Microchip")
    35                           ; All rights reserved.
    36                           ; 
    37                           ; This software is developed by Microchip Technology Inc. and its subsidiaries ("Microch
      +                          ip").
    38                           ; 
    39                           ; Redistribution and use in source and binary forms, with or without modification, are
    40                           ; permitted provided that the following conditions are met:
    41                           ; 
    42                           ;     1. Redistributions of source code must retain the above copyright notice, this lis
      +                          t of
    43                           ;        conditions and the following disclaimer.
    44                           ; 
    45                           ;     2. Redistributions in binary form must reproduce the above copyright notice, this 
      +                          list
    46                           ;        of conditions and the following disclaimer in the documentation and/or other
    47                           ;        materials provided with the distribution.
    48                           ; 
    49                           ;     3. Microchip's name may not be used to endorse or promote products derived from th
      +                          is
    50                           ;        software without specific prior written permission.
    51                           ; 
    52                           ; THIS SOFTWARE IS PROVIDED BY MICROCHIP "AS IS" AND ANY EXPRESS OR IMPLIED WARRANTIES,
    53                           ; INCLUDING, BUT NOT LIMITED TO, THE IMPLIED WARRANTIES OF MERCHANTABILITY AND FITNESS F
      +                          OR
    54                           ; PURPOSE ARE DISCLAIMED.  IN NO EVENT SHALL MICROCHIP BE LIABLE FOR ANY DIRECT, INDIREC
      +                          T,
    55                           ; INCIDENTAL, SPECIAL, EXEMPLARY, OR CONSEQUENTIAL DAMAGES (INCLUDING BUT NOT LIMITED TO
    56                           ; PROCUREMENT OF SUBSTITUTE GOODS OR SERVICES; LOSS OF USE, DATA OR PROFITS; OR BUSINESS
    57                           ; INTERRUPTION) HOWSOEVER CAUSED AND ON ANY THEORY OF LIABILITY, WHETHER IN CONTRACT, ST
      +                          RICT
    58                           ; LIABILITY, OR TORT (INCLUDING NEGLIGENCE OR OTHERWISE) ARISING IN ANY WAY OUT OF THE U
      +                          SE OF
    59                           ; THIS SOFTWARE, EVEN IF ADVISED OF THE POSSIBILITY OF SUCH DAMAGE.
    60                           ; 
    61                           ; 
    62                           ; Code-generator required, PIC16F1829 Definitions
    63                           ; 
    64                           ; SFR Addresses
    65  0000                     	;# 
    66  0001                     	;# 
    67  0002                     	;# 
    68  0003                     	;# 
    69  0004                     	;# 
    70  0005                     	;# 
    71  0006                     	;# 
    72  0007                     	;# 
    73  0008                     	;# 
    74  0009                     	;# 
    75  000A                     	;# 
    76  000B                     	;# 
    77  000C                     	;# 
    78  000D                     	;# 
    79  000E                     	;# 
    80  0011                     	;# 
    81  0012                     	;# 
    82  0013                     	;# 
    83  0014                     	;# 
    84  0015                     	;# 
    85  0016                     	;# 
    86  0016                     	;# 
    87  0017                     	;# 
    88  0018                     	;# 
    89  0019                     	;# 
    90  001A                     	;# 
    91  001B                     	;# 
    92  001C                     	;# 
    93  001E                     	;# 
    94  001F                     	;# 
    95  008C                     	;# 
    96  008D                     	;# 
    97  008E                     	;# 
    98  0091                     	;# 
    99  0092                     	;# 
   100  0093                     	;# 
   101  0094                     	;# 
   102  0095                     	;# 
   103  0096                     	;# 
   104  0097                     	;# 
   105  0098                     	;# 
   106  0099                     	;# 
   107  009A                     	;# 
   108  009B                     	;# 
   109  009B                     	;# 
   110  009C                     	;# 
   111  009D                     	;# 
   112  009E                     	;# 
   113  010C                     	;# 
   114  010D                     	;# 
   115  010E                     	;# 
   116  0111                     	;# 
   117  0112                     	;# 
   118  0113                     	;# 
   119  0114                     	;# 
   120  0115                     	;# 
   121  0116                     	;# 
   122  0117                     	;# 
   123  0118                     	;# 
   124  0119                     	;# 
   125  011A                     	;# 
   126  011B                     	;# 
   127  011D                     	;# 
   128  011E                     	;# 
   129  018C                     	;# 
   130  018D                     	;# 
   131  018E                     	;# 
   132  0191                     	;# 
   133  0191                     	;# 
   134  0192                     	;# 
   135  0193                     	;# 
   136  0193                     	;# 
   137  0193                     	;# 
   138  0194                     	;# 
   139  0195                     	;# 
   140  0196                     	;# 
   141  0199                     	;# 
   142  019A                     	;# 
   143  019B                     	;# 
   144  019B                     	;# 
   145  019C                     	;# 
   146  019D                     	;# 
   147  019E                     	;# 
   148  019F                     	;# 
   149  020C                     	;# 
   150  020D                     	;# 
   151  020E                     	;# 
   152  0211                     	;# 
   153  0211                     	;# 
   154  0212                     	;# 
   155  0212                     	;# 
   156  0213                     	;# 
   157  0213                     	;# 
   158  0214                     	;# 
   159  0214                     	;# 
   160  0215                     	;# 
   161  0215                     	;# 
   162  0215                     	;# 
   163  0216                     	;# 
   164  0216                     	;# 
   165  0217                     	;# 
   166  0217                     	;# 
   167  0219                     	;# 
   168  021A                     	;# 
   169  021B                     	;# 
   170  021C                     	;# 
   171  021D                     	;# 
   172  021E                     	;# 
   173  021F                     	;# 
   174  0291                     	;# 
   175  0291                     	;# 
   176  0292                     	;# 
   177  0293                     	;# 
   178  0294                     	;# 
   179  0295                     	;# 
   180  0295                     	;# 
   181  0296                     	;# 
   182  0298                     	;# 
   183  0298                     	;# 
   184  0299                     	;# 
   185  029A                     	;# 
   186  029B                     	;# 
   187  029C                     	;# 
   188  029D                     	;# 
   189  029E                     	;# 
   190  0311                     	;# 
   191  0311                     	;# 
   192  0312                     	;# 
   193  0313                     	;# 
   194  0318                     	;# 
   195  0318                     	;# 
   196  0319                     	;# 
   197  031A                     	;# 
   198  038C                     	;# 
   199  038D                     	;# 
   200  038E                     	;# 
   201  0391                     	;# 
   202  0392                     	;# 
   203  0393                     	;# 
   204  0394                     	;# 
   205  0395                     	;# 
   206  0396                     	;# 
   207  039A                     	;# 
   208  039C                     	;# 
   209  039D                     	;# 
   210  039E                     	;# 
   211  039F                     	;# 
   212  0415                     	;# 
   213  0416                     	;# 
   214  0417                     	;# 
   215  041C                     	;# 
   216  041D                     	;# 
   217  041E                     	;# 
   218  0FE4                     	;# 
   219  0FE5                     	;# 
   220  0FE6                     	;# 
   221  0FE7                     	;# 
   222  0FE8                     	;# 
   223  0FE9                     	;# 
   224  0FEA                     	;# 
   225  0FEB                     	;# 
   226  0FED                     	;# 
   227  0FEE                     	;# 
   228  0FEF                     	;# 
   229  0000                     	;# 
   230  0001                     	;# 
   231  0002                     	;# 
   232  0003                     	;# 
   233  0004                     	;# 
   234  0005                     	;# 
   235  0006                     	;# 
   236  0007                     	;# 
   237  0008                     	;# 
   238  0009                     	;# 
   239  000A                     	;# 
   240  000B                     	;# 
   241  000C                     	;# 
   242  000D                     	;# 
   243  000E                     	;# 
   244  0011                     	;# 
   245  0012                     	;# 
   246  0013                     	;# 
   247  0014                     	;# 
   248  0015                     	;# 
   249  0016                     	;# 
   250  0016                     	;# 
   251  0017                     	;# 
   252  0018                     	;# 
   253  0019                     	;# 
   254  001A                     	;# 
   255  001B                     	;# 
   256  001C                     	;# 
   257  001E                     	;# 
   258  001F                     	;# 
   259  008C                     	;# 
   260  008D                     	;# 
   261  008E                     	;# 
   262  0091                     	;# 
   263  0092                     	;# 
   264  0093                     	;# 
   265  0094                     	;# 
   266  0095                     	;# 
   267  0096                     	;# 
   268  0097                     	;# 
   269  0098                     	;# 
   270  0099                     	;# 
   271  009A                     	;# 
   272  009B                     	;# 
   273  009B                     	;# 
   274  009C                     	;# 
   275  009D                     	;# 
   276  009E                     	;# 
   277  010C                     	;# 
   278  010D                     	;# 
   279  010E                     	;# 
   280  0111                     	;# 
   281  0112                     	;# 
   282  0113                     	;# 
   283  0114                     	;# 
   284  0115                     	;# 
   285  0116                     	;# 
   286  0117                     	;# 
   287  0118                     	;# 
   288  0119                     	;# 
   289  011A                     	;# 
   290  011B                     	;# 
   291  011D                     	;# 
   292  011E                     	;# 
   293  018C                     	;# 
   294  018D                     	;# 
   295  018E                     	;# 
   296  0191                     	;# 
   297  0191                     	;# 
   298  0192                     	;# 
   299  0193                     	;# 
   300  0193                     	;# 
   301  0193                     	;# 
   302  0194                     	;# 
   303  0195                     	;# 
   304  0196                     	;# 
   305  0199                     	;# 
   306  019A                     	;# 
   307  019B                     	;# 
   308  019B                     	;# 
   309  019C                     	;# 
   310  019D                     	;# 
   311  019E                     	;# 
   312  019F                     	;# 
   313  020C                     	;# 
   314  020D                     	;# 
   315  020E                     	;# 
   316  0211                     	;# 
   317  0211                     	;# 
   318  0212                     	;# 
   319  0212                     	;# 
   320  0213                     	;# 
   321  0213                     	;# 
   322  0214                     	;# 
   323  0214                     	;# 
   324  0215                     	;# 
   325  0215                     	;# 
   326  0215                     	;# 
   327  0216                     	;# 
   328  0216                     	;# 
   329  0217                     	;# 
   330  0217                     	;# 
   331  0219                     	;# 
   332  021A                     	;# 
   333  021B                     	;# 
   334  021C                     	;# 
   335  021D                     	;# 
   336  021E                     	;# 
   337  021F                     	;# 
   338  0291                     	;# 
   339  0291                     	;# 
   340  0292                     	;# 
   341  0293                     	;# 
   342  0294                     	;# 
   343  0295                     	;# 
   344  0295                     	;# 
   345  0296                     	;# 
   346  0298                     	;# 
   347  0298                     	;# 
   348  0299                     	;# 
   349  029A                     	;# 
   350  029B                     	;# 
   351  029C                     	;# 
   352  029D                     	;# 
   353  029E                     	;# 
   354  0311                     	;# 
   355  0311                     	;# 
   356  0312                     	;# 
   357  0313                     	;# 
   358  0318                     	;# 
   359  0318                     	;# 
   360  0319                     	;# 
   361  031A                     	;# 
   362  038C                     	;# 
   363  038D                     	;# 
   364  038E                     	;# 
   365  0391                     	;# 
   366  0392                     	;# 
   367  0393                     	;# 
   368  0394                     	;# 
   369  0395                     	;# 
   370  0396                     	;# 
   371  039A                     	;# 
   372  039C                     	;# 
   373  039D                     	;# 
   374  039E                     	;# 
   375  039F                     	;# 
   376  0415                     	;# 
   377  0416                     	;# 
   378  0417                     	;# 
   379  041C                     	;# 
   380  041D                     	;# 
   381  041E                     	;# 
   382  0FE4                     	;# 
   383  0FE5                     	;# 
   384  0FE6                     	;# 
   385  0FE7                     	;# 
   386  0FE8                     	;# 
   387  0FE9                     	;# 
   388  0FEA                     	;# 
   389  0FEB                     	;# 
   390  0FED                     	;# 
   391  0FEE                     	;# 
   392  0FEF                     	;# 
   393  0000                     	;# 
   394  0001                     	;# 
   395  0002                     	;# 
   396  0003                     	;# 
   397  0004                     	;# 
   398  0005                     	;# 
   399  0006                     	;# 
   400  0007                     	;# 
   401  0008                     	;# 
   402  0009                     	;# 
   403  000A                     	;# 
   404  000B                     	;# 
   405  000C                     	;# 
   406  000D                     	;# 
   407  000E                     	;# 
   408  0011                     	;# 
   409  0012                     	;# 
   410  0013                     	;# 
   411  0014                     	;# 
   412  0015                     	;# 
   413  0016                     	;# 
   414  0016                     	;# 
   415  0017                     	;# 
   416  0018                     	;# 
   417  0019                     	;# 
   418  001A                     	;# 
   419  001B                     	;# 
   420  001C                     	;# 
   421  001E                     	;# 
   422  001F                     	;# 
   423  008C                     	;# 
   424  008D                     	;# 
   425  008E                     	;# 
   426  0091                     	;# 
   427  0092                     	;# 
   428  0093                     	;# 
   429  0094                     	;# 
   430  0095                     	;# 
   431  0096                     	;# 
   432  0097                     	;# 
   433  0098                     	;# 
   434  0099                     	;# 
   435  009A                     	;# 
   436  009B                     	;# 
   437  009B                     	;# 
   438  009C                     	;# 
   439  009D                     	;# 
   440  009E                     	;# 
   441  010C                     	;# 
   442  010D                     	;# 
   443  010E                     	;# 
   444  0111                     	;# 
   445  0112                     	;# 
   446  0113                     	;# 
   447  0114                     	;# 
   448  0115                     	;# 
   449  0116                     	;# 
   450  0117                     	;# 
   451  0118                     	;# 
   452  0119                     	;# 
   453  011A                     	;# 
   454  011B                     	;# 
   455  011D                     	;# 
   456  011E                     	;# 
   457  018C                     	;# 
   458  018D                     	;# 
   459  018E                     	;# 
   460  0191                     	;# 
   461  0191                     	;# 
   462  0192                     	;# 
   463  0193                     	;# 
   464  0193                     	;# 
   465  0193                     	;# 
   466  0194                     	;# 
   467  0195                     	;# 
   468  0196                     	;# 
   469  0199                     	;# 
   470  019A                     	;# 
   471  019B                     	;# 
   472  019B                     	;# 
   473  019C                     	;# 
   474  019D                     	;# 
   475  019E                     	;# 
   476  019F                     	;# 
   477  020C                     	;# 
   478  020D                     	;# 
   479  020E                     	;# 
   480  0211                     	;# 
   481  0211                     	;# 
   482  0212                     	;# 
   483  0212                     	;# 
   484  0213                     	;# 
   485  0213                     	;# 
   486  0214                     	;# 
   487  0214                     	;# 
   488  0215                     	;# 
   489  0215                     	;# 
   490  0215                     	;# 
   491  0216                     	;# 
   492  0216                     	;# 
   493  0217                     	;# 
   494  0217                     	;# 
   495  0219                     	;# 
   496  021A                     	;# 
   497  021B                     	;# 
   498  021C                     	;# 
   499  021D                     	;# 
   500  021E                     	;# 
   501  021F                     	;# 
   502  0291                     	;# 
   503  0291                     	;# 
   504  0292                     	;# 
   505  0293                     	;# 
   506  0294                     	;# 
   507  0295                     	;# 
   508  0295                     	;# 
   509  0296                     	;# 
   510  0298                     	;# 
   511  0298                     	;# 
   512  0299                     	;# 
   513  029A                     	;# 
   514  029B                     	;# 
   515  029C                     	;# 
   516  029D                     	;# 
   517  029E                     	;# 
   518  0311                     	;# 
   519  0311                     	;# 
   520  0312                     	;# 
   521  0313                     	;# 
   522  0318                     	;# 
   523  0318                     	;# 
   524  0319                     	;# 
   525  031A                     	;# 
   526  038C                     	;# 
   527  038D                     	;# 
   528  038E                     	;# 
   529  0391                     	;# 
   530  0392                     	;# 
   531  0393                     	;# 
   532  0394                     	;# 
   533  0395                     	;# 
   534  0396                     	;# 
   535  039A                     	;# 
   536  039C                     	;# 
   537  039D                     	;# 
   538  039E                     	;# 
   539  039F                     	;# 
   540  0415                     	;# 
   541  0416                     	;# 
   542  0417                     	;# 
   543  041C                     	;# 
   544  041D                     	;# 
   545  041E                     	;# 
   546  0FE4                     	;# 
   547  0FE5                     	;# 
   548  0FE6                     	;# 
   549  0FE7                     	;# 
   550  0FE8                     	;# 
   551  0FE9                     	;# 
   552  0FEA                     	;# 
   553  0FEB                     	;# 
   554  0FED                     	;# 
   555  0FEE                     	;# 
   556  0FEF                     	;# 
   557  0000                     	;# 
   558  0001                     	;# 
   559  0002                     	;# 
   560  0003                     	;# 
   561  0004                     	;# 
   562  0005                     	;# 
   563  0006                     	;# 
   564  0007                     	;# 
   565  0008                     	;# 
   566  0009                     	;# 
   567  000A                     	;# 
   568  000B                     	;# 
   569  000C                     	;# 
   570  000D                     	;# 
   571  000E                     	;# 
   572  0011                     	;# 
   573  0012                     	;# 
   574  0013                     	;# 
   575  0014                     	;# 
   576  0015                     	;# 
   577  0016                     	;# 
   578  0016                     	;# 
   579  0017                     	;# 
   580  0018                     	;# 
   581  0019                     	;# 
   582  001A                     	;# 
   583  001B                     	;# 
   584  001C                     	;# 
   585  001E                     	;# 
   586  001F                     	;# 
   587  008C                     	;# 
   588  008D                     	;# 
   589  008E                     	;# 
   590  0091                     	;# 
   591  0092                     	;# 
   592  0093                     	;# 
   593  0094                     	;# 
   594  0095                     	;# 
   595  0096                     	;# 
   596  0097                     	;# 
   597  0098                     	;# 
   598  0099                     	;# 
   599  009A                     	;# 
   600  009B                     	;# 
   601  009B                     	;# 
   602  009C                     	;# 
   603  009D                     	;# 
   604  009E                     	;# 
   605  010C                     	;# 
   606  010D                     	;# 
   607  010E                     	;# 
   608  0111                     	;# 
   609  0112                     	;# 
   610  0113                     	;# 
   611  0114                     	;# 
   612  0115                     	;# 
   613  0116                     	;# 
   614  0117                     	;# 
   615  0118                     	;# 
   616  0119                     	;# 
   617  011A                     	;# 
   618  011B                     	;# 
   619  011D                     	;# 
   620  011E                     	;# 
   621  018C                     	;# 
   622  018D                     	;# 
   623  018E                     	;# 
   624  0191                     	;# 
   625  0191                     	;# 
   626  0192                     	;# 
   627  0193                     	;# 
   628  0193                     	;# 
   629  0193                     	;# 
   630  0194                     	;# 
   631  0195                     	;# 
   632  0196                     	;# 
   633  0199                     	;# 
   634  019A                     	;# 
   635  019B                     	;# 
   636  019B                     	;# 
   637  019C                     	;# 
   638  019D                     	;# 
   639  019E                     	;# 
   640  019F                     	;# 
   641  020C                     	;# 
   642  020D                     	;# 
   643  020E                     	;# 
   644  0211                     	;# 
   645  0211                     	;# 
   646  0212                     	;# 
   647  0212                     	;# 
   648  0213                     	;# 
   649  0213                     	;# 
   650  0214                     	;# 
   651  0214                     	;# 
   652  0215                     	;# 
   653  0215                     	;# 
   654  0215                     	;# 
   655  0216                     	;# 
   656  0216                     	;# 
   657  0217                     	;# 
   658  0217                     	;# 
   659  0219                     	;# 
   660  021A                     	;# 
   661  021B                     	;# 
   662  021C                     	;# 
   663  021D                     	;# 
   664  021E                     	;# 
   665  021F                     	;# 
   666  0291                     	;# 
   667  0291                     	;# 
   668  0292                     	;# 
   669  0293                     	;# 
   670  0294                     	;# 
   671  0295                     	;# 
   672  0295                     	;# 
   673  0296                     	;# 
   674  0298                     	;# 
   675  0298                     	;# 
   676  0299                     	;# 
   677  029A                     	;# 
   678  029B                     	;# 
   679  029C                     	;# 
   680  029D                     	;# 
   681  029E                     	;# 
   682  0311                     	;# 
   683  0311                     	;# 
   684  0312                     	;# 
   685  0313                     	;# 
   686  0318                     	;# 
   687  0318                     	;# 
   688  0319                     	;# 
   689  031A                     	;# 
   690  038C                     	;# 
   691  038D                     	;# 
   692  038E                     	;# 
   693  0391                     	;# 
   694  0392                     	;# 
   695  0393                     	;# 
   696  0394                     	;# 
   697  0395                     	;# 
   698  0396                     	;# 
   699  039A                     	;# 
   700  039C                     	;# 
   701  039D                     	;# 
   702  039E                     	;# 
   703  039F                     	;# 
   704  0415                     	;# 
   705  0416                     	;# 
   706  0417                     	;# 
   707  041C                     	;# 
   708  041D                     	;# 
   709  041E                     	;# 
   710  0FE4                     	;# 
   711  0FE5                     	;# 
   712  0FE6                     	;# 
   713  0FE7                     	;# 
   714  0FE8                     	;# 
   715  0FE9                     	;# 
   716  0FEA                     	;# 
   717  0FEB                     	;# 
   718  0FED                     	;# 
   719  0FEE                     	;# 
   720  0FEF                     	;# 
   721  0000                     	;# 
   722  0001                     	;# 
   723  0002                     	;# 
   724  0003                     	;# 
   725  0004                     	;# 
   726  0005                     	;# 
   727  0006                     	;# 
   728  0007                     	;# 
   729  0008                     	;# 
   730  0009                     	;# 
   731  000A                     	;# 
   732  000B                     	;# 
   733  000C                     	;# 
   734  000D                     	;# 
   735  000E                     	;# 
   736  0011                     	;# 
   737  0012                     	;# 
   738  0013                     	;# 
   739  0014                     	;# 
   740  0015                     	;# 
   741  0016                     	;# 
   742  0016                     	;# 
   743  0017                     	;# 
   744  0018                     	;# 
   745  0019                     	;# 
   746  001A                     	;# 
   747  001B                     	;# 
   748  001C                     	;# 
   749  001E                     	;# 
   750  001F                     	;# 
   751  008C                     	;# 
   752  008D                     	;# 
   753  008E                     	;# 
   754  0091                     	;# 
   755  0092                     	;# 
   756  0093                     	;# 
   757  0094                     	;# 
   758  0095                     	;# 
   759  0096                     	;# 
   760  0097                     	;# 
   761  0098                     	;# 
   762  0099                     	;# 
   763  009A                     	;# 
   764  009B                     	;# 
   765  009B                     	;# 
   766  009C                     	;# 
   767  009D                     	;# 
   768  009E                     	;# 
   769  010C                     	;# 
   770  010D                     	;# 
   771  010E                     	;# 
   772  0111                     	;# 
   773  0112                     	;# 
   774  0113                     	;# 
   775  0114                     	;# 
   776  0115                     	;# 
   777  0116                     	;# 
   778  0117                     	;# 
   779  0118                     	;# 
   780  0119                     	;# 
   781  011A                     	;# 
   782  011B                     	;# 
   783  011D                     	;# 
   784  011E                     	;# 
   785  018C                     	;# 
   786  018D                     	;# 
   787  018E                     	;# 
   788  0191                     	;# 
   789  0191                     	;# 
   790  0192                     	;# 
   791  0193                     	;# 
   792  0193                     	;# 
   793  0193                     	;# 
   794  0194                     	;# 
   795  0195                     	;# 
   796  0196                     	;# 
   797  0199                     	;# 
   798  019A                     	;# 
   799  019B                     	;# 
   800  019B                     	;# 
   801  019C                     	;# 
   802  019D                     	;# 
   803  019E                     	;# 
   804  019F                     	;# 
   805  020C                     	;# 
   806  020D                     	;# 
   807  020E                     	;# 
   808  0211                     	;# 
   809  0211                     	;# 
   810  0212                     	;# 
   811  0212                     	;# 
   812  0213                     	;# 
   813  0213                     	;# 
   814  0214                     	;# 
   815  0214                     	;# 
   816  0215                     	;# 
   817  0215                     	;# 
   818  0215                     	;# 
   819  0216                     	;# 
   820  0216                     	;# 
   821  0217                     	;# 
   822  0217                     	;# 
   823  0219                     	;# 
   824  021A                     	;# 
   825  021B                     	;# 
   826  021C                     	;# 
   827  021D                     	;# 
   828  021E                     	;# 
   829  021F                     	;# 
   830  0291                     	;# 
   831  0291                     	;# 
   832  0292                     	;# 
   833  0293                     	;# 
   834  0294                     	;# 
   835  0295                     	;# 
   836  0295                     	;# 
   837  0296                     	;# 
   838  0298                     	;# 
   839  0298                     	;# 
   840  0299                     	;# 
   841  029A                     	;# 
   842  029B                     	;# 
   843  029C                     	;# 
   844  029D                     	;# 
   845  029E                     	;# 
   846  0311                     	;# 
   847  0311                     	;# 
   848  0312                     	;# 
   849  0313                     	;# 
   850  0318                     	;# 
   851  0318                     	;# 
   852  0319                     	;# 
   853  031A                     	;# 
   854  038C                     	;# 
   855  038D                     	;# 
   856  038E                     	;# 
   857  0391                     	;# 
   858  0392                     	;# 
   859  0393                     	;# 
   860  0394                     	;# 
   861  0395                     	;# 
   862  0396                     	;# 
   863  039A                     	;# 
   864  039C                     	;# 
   865  039D                     	;# 
   866  039E                     	;# 
   867  039F                     	;# 
   868  0415                     	;# 
   869  0416                     	;# 
   870  0417                     	;# 
   871  041C                     	;# 
   872  041D                     	;# 
   873  041E                     	;# 
   874  0FE4                     	;# 
   875  0FE5                     	;# 
   876  0FE6                     	;# 
   877  0FE7                     	;# 
   878  0FE8                     	;# 
   879  0FE9                     	;# 
   880  0FEA                     	;# 
   881  0FEB                     	;# 
   882  0FED                     	;# 
   883  0FEE                     	;# 
   884  0FEF                     	;# 
   885  0000                     	;# 
   886  0001                     	;# 
   887  0002                     	;# 
   888  0003                     	;# 
   889  0004                     	;# 
   890  0005                     	;# 
   891  0006                     	;# 
   892  0007                     	;# 
   893  0008                     	;# 
   894  0009                     	;# 
   895  000A                     	;# 
   896  000B                     	;# 
   897  000C                     	;# 
   898  000D                     	;# 
   899  000E                     	;# 
   900  0011                     	;# 
   901  0012                     	;# 
   902  0013                     	;# 
   903  0014                     	;# 
   904  0015                     	;# 
   905  0016                     	;# 
   906  0016                     	;# 
   907  0017                     	;# 
   908  0018                     	;# 
   909  0019                     	;# 
   910  001A                     	;# 
   911  001B                     	;# 
   912  001C                     	;# 
   913  001E                     	;# 
   914  001F                     	;# 
   915  008C                     	;# 
   916  008D                     	;# 
   917  008E                     	;# 
   918  0091                     	;# 
   919  0092                     	;# 
   920  0093                     	;# 
   921  0094                     	;# 
   922  0095                     	;# 
   923  0096                     	;# 
   924  0097                     	;# 
   925  0098                     	;# 
   926  0099                     	;# 
   927  009A                     	;# 
   928  009B                     	;# 
   929  009B                     	;# 
   930  009C                     	;# 
   931  009D                     	;# 
   932  009E                     	;# 
   933  010C                     	;# 
   934  010D                     	;# 
   935  010E                     	;# 
   936  0111                     	;# 
   937  0112                     	;# 
   938  0113                     	;# 
   939  0114                     	;# 
   940  0115                     	;# 
   941  0116                     	;# 
   942  0117                     	;# 
   943  0118                     	;# 
   944  0119                     	;# 
   945  011A                     	;# 
   946  011B                     	;# 
   947  011D                     	;# 
   948  011E                     	;# 
   949  018C                     	;# 
   950  018D                     	;# 
   951  018E                     	;# 
   952  0191                     	;# 
   953  0191                     	;# 
   954  0192                     	;# 
   955  0193                     	;# 
   956  0193                     	;# 
   957  0193                     	;# 
   958  0194                     	;# 
   959  0195                     	;# 
   960  0196                     	;# 
   961  0199                     	;# 
   962  019A                     	;# 
   963  019B                     	;# 
   964  019B                     	;# 
   965  019C                     	;# 
   966  019D                     	;# 
   967  019E                     	;# 
   968  019F                     	;# 
   969  020C                     	;# 
   970  020D                     	;# 
   971  020E                     	;# 
   972  0211                     	;# 
   973  0211                     	;# 
   974  0212                     	;# 
   975  0212                     	;# 
   976  0213                     	;# 
   977  0213                     	;# 
   978  0214                     	;# 
   979  0214                     	;# 
   980  0215                     	;# 
   981  0215                     	;# 
   982  0215                     	;# 
   983  0216                     	;# 
   984  0216                     	;# 
   985  0217                     	;# 
   986  0217                     	;# 
   987  0219                     	;# 
   988  021A                     	;# 
   989  021B                     	;# 
   990  021C                     	;# 
   991  021D                     	;# 
   992  021E                     	;# 
   993  021F                     	;# 
   994  0291                     	;# 
   995  0291                     	;# 
   996  0292                     	;# 
   997  0293                     	;# 
   998  0294                     	;# 
   999  0295                     	;# 
  1000  0295                     	;# 
  1001  0296                     	;# 
  1002  0298                     	;# 
  1003  0298                     	;# 
  1004  0299                     	;# 
  1005  029A                     	;# 
  1006  029B                     	;# 
  1007  029C                     	;# 
  1008  029D                     	;# 
  1009  029E                     	;# 
  1010  0311                     	;# 
  1011  0311                     	;# 
  1012  0312                     	;# 
  1013  0313                     	;# 
  1014  0318                     	;# 
  1015  0318                     	;# 
  1016  0319                     	;# 
  1017  031A                     	;# 
  1018  038C                     	;# 
  1019  038D                     	;# 
  1020  038E                     	;# 
  1021  0391                     	;# 
  1022  0392                     	;# 
  1023  0393                     	;# 
  1024  0394                     	;# 
  1025  0395                     	;# 
  1026  0396                     	;# 
  1027  039A                     	;# 
  1028  039C                     	;# 
  1029  039D                     	;# 
  1030  039E                     	;# 
  1031  039F                     	;# 
  1032  0415                     	;# 
  1033  0416                     	;# 
  1034  0417                     	;# 
  1035  041C                     	;# 
  1036  041D                     	;# 
  1037  041E                     	;# 
  1038  0FE4                     	;# 
  1039  0FE5                     	;# 
  1040  0FE6                     	;# 
  1041  0FE7                     	;# 
  1042  0FE8                     	;# 
  1043  0FE9                     	;# 
  1044  0FEA                     	;# 
  1045  0FEB                     	;# 
  1046  0FED                     	;# 
  1047  0FEE                     	;# 
  1048  0FEF                     	;# 
  1049  0000                     	;# 
  1050  0001                     	;# 
  1051  0002                     	;# 
  1052  0003                     	;# 
  1053  0004                     	;# 
  1054  0005                     	;# 
  1055  0006                     	;# 
  1056  0007                     	;# 
  1057  0008                     	;# 
  1058  0009                     	;# 
  1059  000A                     	;# 
  1060  000B                     	;# 
  1061  000C                     	;# 
  1062  000D                     	;# 
  1063  000E                     	;# 
  1064  0011                     	;# 
  1065  0012                     	;# 
  1066  0013                     	;# 
  1067  0014                     	;# 
  1068  0015                     	;# 
  1069  0016                     	;# 
  1070  0016                     	;# 
  1071  0017                     	;# 
  1072  0018                     	;# 
  1073  0019                     	;# 
  1074  001A                     	;# 
  1075  001B                     	;# 
  1076  001C                     	;# 
  1077  001E                     	;# 
  1078  001F                     	;# 
  1079  008C                     	;# 
  1080  008D                     	;# 
  1081  008E                     	;# 
  1082  0091                     	;# 
  1083  0092                     	;# 
  1084  0093                     	;# 
  1085  0094                     	;# 
  1086  0095                     	;# 
  1087  0096                     	;# 
  1088  0097                     	;# 
  1089  0098                     	;# 
  1090  0099                     	;# 
  1091  009A                     	;# 
  1092  009B                     	;# 
  1093  009B                     	;# 
  1094  009C                     	;# 
  1095  009D                     	;# 
  1096  009E                     	;# 
  1097  010C                     	;# 
  1098  010D                     	;# 
  1099  010E                     	;# 
  1100  0111                     	;# 
  1101  0112                     	;# 
  1102  0113                     	;# 
  1103  0114                     	;# 
  1104  0115                     	;# 
  1105  0116                     	;# 
  1106  0117                     	;# 
  1107  0118                     	;# 
  1108  0119                     	;# 
  1109  011A                     	;# 
  1110  011B                     	;# 
  1111  011D                     	;# 
  1112  011E                     	;# 
  1113  018C                     	;# 
  1114  018D                     	;# 
  1115  018E                     	;# 
  1116  0191                     	;# 
  1117  0191                     	;# 
  1118  0192                     	;# 
  1119  0193                     	;# 
  1120  0193                     	;# 
  1121  0193                     	;# 
  1122  0194                     	;# 
  1123  0195                     	;# 
  1124  0196                     	;# 
  1125  0199                     	;# 
  1126  019A                     	;# 
  1127  019B                     	;# 
  1128  019B                     	;# 
  1129  019C                     	;# 
  1130  019D                     	;# 
  1131  019E                     	;# 
  1132  019F                     	;# 
  1133  020C                     	;# 
  1134  020D                     	;# 
  1135  020E                     	;# 
  1136  0211                     	;# 
  1137  0211                     	;# 
  1138  0212                     	;# 
  1139  0212                     	;# 
  1140  0213                     	;# 
  1141  0213                     	;# 
  1142  0214                     	;# 
  1143  0214                     	;# 
  1144  0215                     	;# 
  1145  0215                     	;# 
  1146  0215                     	;# 
  1147  0216                     	;# 
  1148  0216                     	;# 
  1149  0217                     	;# 
  1150  0217                     	;# 
  1151  0219                     	;# 
  1152  021A                     	;# 
  1153  021B                     	;# 
  1154  021C                     	;# 
  1155  021D                     	;# 
  1156  021E                     	;# 
  1157  021F                     	;# 
  1158  0291                     	;# 
  1159  0291                     	;# 
  1160  0292                     	;# 
  1161  0293                     	;# 
  1162  0294                     	;# 
  1163  0295                     	;# 
  1164  0295                     	;# 
  1165  0296                     	;# 
  1166  0298                     	;# 
  1167  0298                     	;# 
  1168  0299                     	;# 
  1169  029A                     	;# 
  1170  029B                     	;# 
  1171  029C                     	;# 
  1172  029D                     	;# 
  1173  029E                     	;# 
  1174  0311                     	;# 
  1175  0311                     	;# 
  1176  0312                     	;# 
  1177  0313                     	;# 
  1178  0318                     	;# 
  1179  0318                     	;# 
  1180  0319                     	;# 
  1181  031A                     	;# 
  1182  038C                     	;# 
  1183  038D                     	;# 
  1184  038E                     	;# 
  1185  0391                     	;# 
  1186  0392                     	;# 
  1187  0393                     	;# 
  1188  0394                     	;# 
  1189  0395                     	;# 
  1190  0396                     	;# 
  1191  039A                     	;# 
  1192  039C                     	;# 
  1193  039D                     	;# 
  1194  039E                     	;# 
  1195  039F                     	;# 
  1196  0415                     	;# 
  1197  0416                     	;# 
  1198  0417                     	;# 
  1199  041C                     	;# 
  1200  041D                     	;# 
  1201  041E                     	;# 
  1202  0FE4                     	;# 
  1203  0FE5                     	;# 
  1204  0FE6                     	;# 
  1205  0FE7                     	;# 
  1206  0FE8                     	;# 
  1207  0FE9                     	;# 
  1208  0FEA                     	;# 
  1209  0FEB                     	;# 
  1210  0FED                     	;# 
  1211  0FEE                     	;# 
  1212  0FEF                     	;# 
  1213  0000                     	;# 
  1214  0001                     	;# 
  1215  0002                     	;# 
  1216  0003                     	;# 
  1217  0004                     	;# 
  1218  0005                     	;# 
  1219  0006                     	;# 
  1220  0007                     	;# 
  1221  0008                     	;# 
  1222  0009                     	;# 
  1223  000A                     	;# 
  1224  000B                     	;# 
  1225  000C                     	;# 
  1226  000D                     	;# 
  1227  000E                     	;# 
  1228  0011                     	;# 
  1229  0012                     	;# 
  1230  0013                     	;# 
  1231  0014                     	;# 
  1232  0015                     	;# 
  1233  0016                     	;# 
  1234  0016                     	;# 
  1235  0017                     	;# 
  1236  0018                     	;# 
  1237  0019                     	;# 
  1238  001A                     	;# 
  1239  001B                     	;# 
  1240  001C                     	;# 
  1241  001E                     	;# 
  1242  001F                     	;# 
  1243  008C                     	;# 
  1244  008D                     	;# 
  1245  008E                     	;# 
  1246  0091                     	;# 
  1247  0092                     	;# 
  1248  0093                     	;# 
  1249  0094                     	;# 
  1250  0095                     	;# 
  1251  0096                     	;# 
  1252  0097                     	;# 
  1253  0098                     	;# 
  1254  0099                     	;# 
  1255  009A                     	;# 
  1256  009B                     	;# 
  1257  009B                     	;# 
  1258  009C                     	;# 
  1259  009D                     	;# 
  1260  009E                     	;# 
  1261  010C                     	;# 
  1262  010D                     	;# 
  1263  010E                     	;# 
  1264  0111                     	;# 
  1265  0112                     	;# 
  1266  0113                     	;# 
  1267  0114                     	;# 
  1268  0115                     	;# 
  1269  0116                     	;# 
  1270  0117                     	;# 
  1271  0118                     	;# 
  1272  0119                     	;# 
  1273  011A                     	;# 
  1274  011B                     	;# 
  1275  011D                     	;# 
  1276  011E                     	;# 
  1277  018C                     	;# 
  1278  018D                     	;# 
  1279  018E                     	;# 
  1280  0191                     	;# 
  1281  0191                     	;# 
  1282  0192                     	;# 
  1283  0193                     	;# 
  1284  0193                     	;# 
  1285  0193                     	;# 
  1286  0194                     	;# 
  1287  0195                     	;# 
  1288  0196                     	;# 
  1289  0199                     	;# 
  1290  019A                     	;# 
  1291  019B                     	;# 
  1292  019B                     	;# 
  1293  019C                     	;# 
  1294  019D                     	;# 
  1295  019E                     	;# 
  1296  019F                     	;# 
  1297  020C                     	;# 
  1298  020D                     	;# 
  1299  020E                     	;# 
  1300  0211                     	;# 
  1301  0211                     	;# 
  1302  0212                     	;# 
  1303  0212                     	;# 
  1304  0213                     	;# 
  1305  0213                     	;# 
  1306  0214                     	;# 
  1307  0214                     	;# 
  1308  0215                     	;# 
  1309  0215                     	;# 
  1310  0215                     	;# 
  1311  0216                     	;# 
  1312  0216                     	;# 
  1313  0217                     	;# 
  1314  0217                     	;# 
  1315  0219                     	;# 
  1316  021A                     	;# 
  1317  021B                     	;# 
  1318  021C                     	;# 
  1319  021D                     	;# 
  1320  021E                     	;# 
  1321  021F                     	;# 
  1322  0291                     	;# 
  1323  0291                     	;# 
  1324  0292                     	;# 
  1325  0293                     	;# 
  1326  0294                     	;# 
  1327  0295                     	;# 
  1328  0295                     	;# 
  1329  0296                     	;# 
  1330  0298                     	;# 
  1331  0298                     	;# 
  1332  0299                     	;# 
  1333  029A                     	;# 
  1334  029B                     	;# 
  1335  029C                     	;# 
  1336  029D                     	;# 
  1337  029E                     	;# 
  1338  0311                     	;# 
  1339  0311                     	;# 
  1340  0312                     	;# 
  1341  0313                     	;# 
  1342  0318                     	;# 
  1343  0318                     	;# 
  1344  0319                     	;# 
  1345  031A                     	;# 
  1346  038C                     	;# 
  1347  038D                     	;# 
  1348  038E                     	;# 
  1349  0391                     	;# 
  1350  0392                     	;# 
  1351  0393                     	;# 
  1352  0394                     	;# 
  1353  0395                     	;# 
  1354  0396                     	;# 
  1355  039A                     	;# 
  1356  039C                     	;# 
  1357  039D                     	;# 
  1358  039E                     	;# 
  1359  039F                     	;# 
  1360  0415                     	;# 
  1361  0416                     	;# 
  1362  0417                     	;# 
  1363  041C                     	;# 
  1364  041D                     	;# 
  1365  041E                     	;# 
  1366  0FE4                     	;# 
  1367  0FE5                     	;# 
  1368  0FE6                     	;# 
  1369  0FE7                     	;# 
  1370  0FE8                     	;# 
  1371  0FE9                     	;# 
  1372  0FEA                     	;# 
  1373  0FEB                     	;# 
  1374  0FED                     	;# 
  1375  0FEE                     	;# 
  1376  0FEF                     	;_uartRXBuff
  1377  005D                     _TMR0IE	set	93
  1378  005E                     _PEIE	set	94
  1379  005F                     _GIE	set	95
  1380  008D                     _RCIF	set	141
  1381  005A                     _TMR0IF	set	90
  1382  0095                     _OPTION_REG	set	149
  1383  008D                     _TRISB	set	141
  1384  008E                     _TRISCbits	set	142
  1385  008C                     _TRISA	set	140
  1386  0099                     _OSCCON	set	153
  1387  048D                     _RCIE	set	1165
  1388  010E                     _LATCbits	set	270
  1389  08EF                     _RXDTSEL	set	2287
  1390  08EA                     _TXCKSEL	set	2282
  1391  0199                     _RCREG	set	409
  1392  019A                     _TXREG	set	410
  1393  019C                     _SPBRGH	set	412
  1394  019B                     _SPBRGL	set	411
  1395  0CF1                     _TRMT	set	3313
  1396  0CEF                     _SPEN	set	3311
  1397  0CF4                     _SYNC	set	3316
  1398  0CEC                     _CREN	set	3308
  1399  0CF5                     _TXEN	set	3317
  1400  0CF2                     _BRGH	set	3314
  1401  0CFB                     _BRG16	set	3323
  1402                           
  1403                           	psect	stringtext1
  1404  015B                     __pstringtext1:	
  1405  015B                     STR_3:	
  1406  015B  3452               	retlw	82	;'R'
  1407  015C  3465               	retlw	101	;'e'
  1408  015D  3463               	retlw	99	;'c'
  1409  015E  3465               	retlw	101	;'e'
  1410  015F  3469               	retlw	105	;'i'
  1411  0160  3476               	retlw	118	;'v'
  1412  0161  3465               	retlw	101	;'e'
  1413  0162  3464               	retlw	100	;'d'
  1414  0163  3420               	retlw	32	;' '
  1415  0164  3444               	retlw	68	;'D'
  1416  0165  3461               	retlw	97	;'a'
  1417  0166  3474               	retlw	116	;'t'
  1418  0167  3461               	retlw	97	;'a'
  1419  0168  343A               	retlw	58	;':'
  1420  0169  3420               	retlw	32	;' '
  1421  016A  340A               	retlw	10
  1422  016B  3400               	retlw	0
  1423                           
  1424                           	psect	stringtext2
  1425  0186                     __pstringtext2:	
  1426  0186                     STR_1:	
  1427  0186  344C               	retlw	76	;'L'
  1428  0187  3445               	retlw	69	;'E'
  1429  0188  3444               	retlw	68	;'D'
  1430  0189  3420               	retlw	32	;' '
  1431  018A  344F               	retlw	79	;'O'
  1432  018B  3446               	retlw	70	;'F'
  1433  018C  3446               	retlw	70	;'F'
  1434  018D  340A               	retlw	10
  1435  018E  3400               	retlw	0
  1436                           
  1437                           	psect	stringtext3
  1438  018F                     __pstringtext3:	
  1439  018F                     STR_2:	
  1440  018F  344C               	retlw	76	;'L'
  1441  0190  3445               	retlw	69	;'E'
  1442  0191  3444               	retlw	68	;'D'
  1443  0192  3420               	retlw	32	;' '
  1444  0193  344F               	retlw	79	;'O'
  1445  0194  344E               	retlw	78	;'N'
  1446  0195  340A               	retlw	10
  1447  0196  3400               	retlw	0
  1448                           
  1449                           	psect	stringtext4
  1450  0000                     __pstringtext4:	
  1451                           
  1452                           ; #config settings
  1453  0000                     
  1454                           	psect	cinit
  1455  0032                     start_initialization:	
  1456  0032                     __initialization:		;BIGRAM
  1457                           
  1458                           ; Clear objects allocated to BIGRAM
  1459  0032  3070               	movlw	low (0+9072)
  1460  0033  0084               	movwf	4
  1461  0034  3023               	movlw	high (0+9072)
  1462  0035  0085               	movwf	5
  1463  0036  3080               	movlw	128
  1464  0037  00FE               	movwf	btemp
  1465  0038  3000               	movlw	0
  1466  0039  00FF               	movwf	btemp+1
  1467  003A  3181  217A  3180   	fcall	clear_ram0
  1468                           
  1469                           ; Clear objects allocated to COMMON
  1470  003D  01FC               	clrf	__pbssCOMMON& (0+127)
  1471                           
  1472                           ; Clear objects allocated to BANK0
  1473  003E  3020               	movlw	low __pbssBANK0
  1474  003F  0084               	movwf	4
  1475  0040  3000               	movlw	high __pbssBANK0
  1476  0041  0085               	movwf	5
  1477  0042  3014               	movlw	20
  1478  0043  00FE               	movwf	btemp
  1479  0044  3000               	movlw	0
  1480  0045  00FF               	movwf	btemp+1
  1481  0046  3181  217A         	fcall	clear_ram0
  1482  0048                     end_of_initialization:	
  1483                           ;End of C runtime variable initialization code
  1484                           
  1485  0048                     __end_of__initialization:	
  1486  0048  107E               	bcf	int$flags,0	;clear compiler interrupt flag (level 1)
  1487  0049  0020               	movlb	0
  1488  004A  3180  28FF         	ljmp	_main	;jump to C main() function
  1489                           
  1490                           	psect	bssCOMMON
  1491  007C                     __pbssCOMMON:	
  1492  007C                     _uartRX:	
  1493  007C                     	ds	1
  1494                           
  1495                           	psect	bssBANK0
  1496  0020                     __pbssBANK0:	
  1497  0020                     _ledData:	
  1498  0020                     	ds	9
  1499  0029                     _sec:	
  1500  0029                     	ds	4
  1501  002D                     _milliSec:	
  1502  002D                     	ds	4
  1503  0031                     _secCounter:	
  1504  0031                     	ds	2
  1505  0033                     _fullWordReceived:	
  1506  0033                     	ds	1
  1507                           
  1508                           	psect	clrtext
  1509  017A                     clear_ram0:	
  1510                           ;	Called with FSR0 containing the base address, and
  1511                           ;	btemp/btemp+1 has the size to clear
  1512                           
  1513  017A  0064               	clrwdt	;clear the watchdog before getting into this loop
  1514  017B                     clrloop0:	
  1515  017B  0180               	clrf	0	;clear RAM location pointed to by FSR
  1516  017C  3101               	addfsr 0,1
  1517  017D  3001               	movlw	1
  1518  017E  02FE               	subwf	126,f
  1519  017F  3000               	movlw	0
  1520  0180  3BFF               	subwfb	127,f
  1521  0181  087F               	movf	127,w
  1522  0182  047E               	iorwf	126,w
  1523  0183  1903               	btfsc	3,2
  1524  0184  3400               	retlw	0	;all done for this memory range, return
  1525  0185  297B               	goto	clrloop0	;have we reached the end yet?
  1526                           
  1527                           	psect	cstackCOMMON
  1528  0070                     __pcstackCOMMON:	
  1529  0070                     ?_oscillatorInit:	
  1530  0070                     ?_portInit:	
  1531                           ; 1 bytes @ 0x0
  1532                           
  1533  0070                     ?_InterruptInit:	
  1534                           ; 1 bytes @ 0x0
  1535                           
  1536  0070                     ?_Timer0Init:	
  1537                           ; 1 bytes @ 0x0
  1538                           
  1539  0070                     ?_LEDinit:	
  1540                           ; 1 bytes @ 0x0
  1541                           
  1542  0070                     ?_UARTinit:	
  1543                           ; 1 bytes @ 0x0
  1544                           
  1545  0070                     ?_LEDProcess:	
  1546                           ; 1 bytes @ 0x0
  1547                           
  1548  0070                     ?_UARTRx:	
  1549                           ; 1 bytes @ 0x0
  1550                           
  1551  0070                     ?_timer0Interrupt:	
  1552                           ; 1 bytes @ 0x0
  1553                           
  1554  0070                     ??_timer0Interrupt:	
  1555                           ; 1 bytes @ 0x0
  1556                           
  1557  0070                     ?_main:	
  1558                           ; 1 bytes @ 0x0
  1559                           
  1560                           
  1561                           ; 2 bytes @ 0x0
  1562  0070                     	ds	1
  1563  0071                     ??_oscillatorInit:	
  1564  0071                     ??_portInit:	
  1565                           ; 1 bytes @ 0x1
  1566                           
  1567  0071                     ??_InterruptInit:	
  1568                           ; 1 bytes @ 0x1
  1569                           
  1570  0071                     ??_Timer0Init:	
  1571                           ; 1 bytes @ 0x1
  1572                           
  1573  0071                     ??_LEDinit:	
  1574                           ; 1 bytes @ 0x1
  1575                           
  1576  0071                     ??_UARTinit:	
  1577                           ; 1 bytes @ 0x1
  1578                           
  1579  0071                     ?_strlen:	
  1580                           ; 1 bytes @ 0x1
  1581                           
  1582  0071                     strlen@s:	
  1583                           ; 2 bytes @ 0x1
  1584                           
  1585                           
  1586                           ; 2 bytes @ 0x1
  1587  0071                     	ds	2
  1588  0073                     ??_strlen:	
  1589                           
  1590                           ; 1 bytes @ 0x3
  1591  0073                     	ds	1
  1592  0074                     strlen@a:	
  1593                           
  1594                           ; 2 bytes @ 0x4
  1595  0074                     	ds	2
  1596  0076                     ?_UARTTx:	
  1597  0076                     UARTTx@sendString:	
  1598                           ; 1 bytes @ 0x6
  1599                           
  1600                           
  1601                           ; 2 bytes @ 0x6
  1602  0076                     	ds	2
  1603  0078                     ??_UARTTx:	
  1604                           
  1605                           ; 1 bytes @ 0x8
  1606  0078                     	ds	1
  1607  0079                     ??_UARTRx:	
  1608                           
  1609                           ; 1 bytes @ 0x9
  1610  0079                     	ds	1
  1611  007A                     UARTRx@receivedString:	
  1612                           
  1613                           ; 2 bytes @ 0xA
  1614  007A                     	ds	2
  1615  007C                     ??_main:	
  1616                           
  1617                           	psect	cstackBANK0
  1618  0034                     __pcstackBANK0:	
  1619                           ; 1 bytes @ 0xC
  1620                           
  1621  0034                     ??_LEDProcess:	
  1622                           
  1623                           ; 1 bytes @ 0x0
  1624  0034                     	ds	4
  1625                           
  1626                           	psect	maintext
  1627  00FF                     __pmaintext:	
  1628 ;;
  1629 ;;Main: autosize = 0, tempsize = 0, incstack = 0, save=0
  1630 ;;
  1631 ;; *************** function _main *****************
  1632 ;; Defined at:
  1633 ;;		line 33 in file "main.c"
  1634 ;; Parameters:    Size  Location     Type
  1635 ;;		None
  1636 ;; Auto vars:     Size  Location     Type
  1637 ;;		None
  1638 ;; Return value:  Size  Location     Type
  1639 ;;                  2   22[None  ] int 
  1640 ;; Registers used:
  1641 ;;		wreg, fsr0l, fsr0h, status,2, status,0, pclath, cstack
  1642 ;; Tracked objects:
  1643 ;;		On entry : B1F/0
  1644 ;;		On exit  : 0/0
  1645 ;;		Unchanged: 0/0
  1646 ;; Data sizes:     COMMON   BANK0   BANK1   BANK2   BANK3   BANK4   BANK5   BANK6   BANK7   BANK8   BANK9  BANK10  BANK1
      +1  BANK12
  1647 ;;      Params:         0       0       0       0       0       0       0       0       0       0       0       0       
      +0       0
  1648 ;;      Locals:         0       0       0       0       0       0       0       0       0       0       0       0       
      +0       0
  1649 ;;      Temps:          0       0       0       0       0       0       0       0       0       0       0       0       
      +0       0
  1650 ;;      Totals:         0       0       0       0       0       0       0       0       0       0       0       0       
      +0       0
  1651 ;;Total ram usage:        0 bytes
  1652 ;; Hardware stack levels required when called:    4
  1653 ;; This function calls:
  1654 ;;		_InterruptInit
  1655 ;;		_LEDProcess
  1656 ;;		_LEDinit
  1657 ;;		_Timer0Init
  1658 ;;		_UARTRx
  1659 ;;		_UARTinit
  1660 ;;		_oscillatorInit
  1661 ;;		_portInit
  1662 ;; This function is called by:
  1663 ;;		Startup code after reset
  1664 ;; This function uses a non-reentrant model
  1665 ;;
  1666                           
  1667                           
  1668                           ;psect for function _main
  1669  00FF                     _main:	
  1670                           
  1671                           ;main.c: 35:     oscillatorInit();
  1672                           
  1673                           ;incstack = 0
  1674                           ; Regs used in _main: [wreg-fsr0h+status,2+status,0+pclath+cstack]
  1675  00FF  3181  21A3  3180   	fcall	_oscillatorInit
  1676                           
  1677                           ;main.c: 36:     portInit();
  1678  0102  3181  2197  3180   	fcall	_portInit
  1679                           
  1680                           ;main.c: 37:     InterruptInit();
  1681  0105  3181  219D  3180   	fcall	_InterruptInit
  1682                           
  1683                           ;main.c: 38:     Timer0Init();
  1684  0108  3181  21A7  3180   	fcall	_Timer0Init
  1685                           
  1686                           ;main.c: 39:     LEDinit();
  1687  010B  3181  2146  3180   	fcall	_LEDinit
  1688                           
  1689                           ;main.c: 40:     UARTinit();
  1690  010E  3181  216C  3180   	fcall	_UARTinit
  1691  0111                     l1112:	
  1692                           
  1693                           ;main.c: 42:     {;main.c: 43:         LEDProcess();
  1694  0111  3180  204C  3180   	fcall	_LEDProcess
  1695                           
  1696                           ;main.c: 44:         UARTRx();
  1697  0114  3181  2118  3180   	fcall	_UARTRx
  1698  0117  2911               	goto	l1112
  1699  0118                     __end_of_main:	
  1700                           
  1701                           	psect	text1
  1702  0197                     __ptext1:	
  1703 ;; *************** function _portInit *****************
  1704 ;; Defined at:
  1705 ;;		line 4 in file "PortInit.c"
  1706 ;; Parameters:    Size  Location     Type
  1707 ;;		None
  1708 ;; Auto vars:     Size  Location     Type
  1709 ;;		None
  1710 ;; Return value:  Size  Location     Type
  1711 ;;                  1    wreg      void 
  1712 ;; Registers used:
  1713 ;;		status,2
  1714 ;; Tracked objects:
  1715 ;;		On entry : 0/0
  1716 ;;		On exit  : 0/0
  1717 ;;		Unchanged: 0/0
  1718 ;; Data sizes:     COMMON   BANK0   BANK1   BANK2   BANK3   BANK4   BANK5   BANK6   BANK7   BANK8   BANK9  BANK10  BANK1
      +1  BANK12
  1719 ;;      Params:         0       0       0       0       0       0       0       0       0       0       0       0       
      +0       0
  1720 ;;      Locals:         0       0       0       0       0       0       0       0       0       0       0       0       
      +0       0
  1721 ;;      Temps:          0       0       0       0       0       0       0       0       0       0       0       0       
      +0       0
  1722 ;;      Totals:         0       0       0       0       0       0       0       0       0       0       0       0       
      +0       0
  1723 ;;Total ram usage:        0 bytes
  1724 ;; Hardware stack levels used:    1
  1725 ;; Hardware stack levels required when called:    1
  1726 ;; This function calls:
  1727 ;;		Nothing
  1728 ;; This function is called by:
  1729 ;;		_main
  1730 ;; This function uses a non-reentrant model
  1731 ;;
  1732                           
  1733                           
  1734                           ;psect for function _portInit
  1735  0197                     _portInit:	
  1736                           
  1737                           ;PortInit.c: 6:     TRISA = 0x00;
  1738                           
  1739                           ;incstack = 0
  1740                           ; Regs used in _portInit: [status,2]
  1741  0197  0021               	movlb	1	; select bank1
  1742  0198  018C               	clrf	12	;volatile
  1743                           
  1744                           ;PortInit.c: 7:     TRISCbits.TRISC2 = 0;
  1745  0199  110E               	bcf	14,2	;volatile
  1746                           
  1747                           ;PortInit.c: 8:     TRISCbits.TRISC4 = 0;
  1748  019A  120E               	bcf	14,4	;volatile
  1749                           
  1750                           ;PortInit.c: 9:     TRISB = 0x00;
  1751  019B  018D               	clrf	13	;volatile
  1752  019C  0008               	return
  1753  019D                     __end_of_portInit:	
  1754                           
  1755                           	psect	text2
  1756  01A3                     __ptext2:	
  1757 ;; *************** function _oscillatorInit *****************
  1758 ;; Defined at:
  1759 ;;		line 4 in file "oscillatorInit.c"
  1760 ;; Parameters:    Size  Location     Type
  1761 ;;		None
  1762 ;; Auto vars:     Size  Location     Type
  1763 ;;		None
  1764 ;; Return value:  Size  Location     Type
  1765 ;;                  1    wreg      void 
  1766 ;; Registers used:
  1767 ;;		wreg
  1768 ;; Tracked objects:
  1769 ;;		On entry : 0/0
  1770 ;;		On exit  : 0/0
  1771 ;;		Unchanged: 0/0
  1772 ;; Data sizes:     COMMON   BANK0   BANK1   BANK2   BANK3   BANK4   BANK5   BANK6   BANK7   BANK8   BANK9  BANK10  BANK1
      +1  BANK12
  1773 ;;      Params:         0       0       0       0       0       0       0       0       0       0       0       0       
      +0       0
  1774 ;;      Locals:         0       0       0       0       0       0       0       0       0       0       0       0       
      +0       0
  1775 ;;      Temps:          0       0       0       0       0       0       0       0       0       0       0       0       
      +0       0
  1776 ;;      Totals:         0       0       0       0       0       0       0       0       0       0       0       0       
      +0       0
  1777 ;;Total ram usage:        0 bytes
  1778 ;; Hardware stack levels used:    1
  1779 ;; Hardware stack levels required when called:    1
  1780 ;; This function calls:
  1781 ;;		Nothing
  1782 ;; This function is called by:
  1783 ;;		_main
  1784 ;; This function uses a non-reentrant model
  1785 ;;
  1786                           
  1787                           
  1788                           ;psect for function _oscillatorInit
  1789  01A3                     _oscillatorInit:	
  1790                           
  1791                           ;oscillatorInit.c: 6:     OSCCON = 0x72;
  1792                           
  1793                           ;incstack = 0
  1794                           ; Regs used in _oscillatorInit: [wreg]
  1795  01A3  3072               	movlw	114
  1796  01A4  0021               	movlb	1	; select bank1
  1797  01A5  0099               	movwf	25	;volatile
  1798  01A6  0008               	return
  1799  01A7                     __end_of_oscillatorInit:	
  1800                           
  1801                           	psect	text3
  1802  016C                     __ptext3:	
  1803 ;; *************** function _UARTinit *****************
  1804 ;; Defined at:
  1805 ;;		line 7 in file "UART.c"
  1806 ;; Parameters:    Size  Location     Type
  1807 ;;		None
  1808 ;; Auto vars:     Size  Location     Type
  1809 ;;		None
  1810 ;; Return value:  Size  Location     Type
  1811 ;;                  1    wreg      void 
  1812 ;; Registers used:
  1813 ;;		wreg, status,2
  1814 ;; Tracked objects:
  1815 ;;		On entry : 0/0
  1816 ;;		On exit  : 0/0
  1817 ;;		Unchanged: 0/0
  1818 ;; Data sizes:     COMMON   BANK0   BANK1   BANK2   BANK3   BANK4   BANK5   BANK6   BANK7   BANK8   BANK9  BANK10  BANK1
      +1  BANK12
  1819 ;;      Params:         0       0       0       0       0       0       0       0       0       0       0       0       
      +0       0
  1820 ;;      Locals:         0       0       0       0       0       0       0       0       0       0       0       0       
      +0       0
  1821 ;;      Temps:          0       0       0       0       0       0       0       0       0       0       0       0       
      +0       0
  1822 ;;      Totals:         0       0       0       0       0       0       0       0       0       0       0       0       
      +0       0
  1823 ;;Total ram usage:        0 bytes
  1824 ;; Hardware stack levels used:    1
  1825 ;; Hardware stack levels required when called:    1
  1826 ;; This function calls:
  1827 ;;		Nothing
  1828 ;; This function is called by:
  1829 ;;		_main
  1830 ;; This function uses a non-reentrant model
  1831 ;;
  1832                           
  1833                           
  1834                           ;psect for function _UARTinit
  1835  016C                     _UARTinit:	
  1836                           
  1837                           ;UART.c: 9:     TXCKSEL = 1;
  1838                           
  1839                           ;incstack = 0
  1840                           ; Regs used in _UARTinit: [wreg+status,2]
  1841  016C  0022               	movlb	2	; select bank2
  1842  016D  151D               	bsf	29,2	;volatile
  1843                           
  1844                           ;UART.c: 10:     RXDTSEL = 1;
  1845  016E  179D               	bsf	29,7	;volatile
  1846                           
  1847                           ;UART.c: 11:     BRG16 = 1;
  1848  016F  0023               	movlb	3	; select bank3
  1849  0170  159F               	bsf	31,3	;volatile
  1850                           
  1851                           ;UART.c: 12:     SPBRGL = 0x10;
  1852  0171  3010               	movlw	16
  1853  0172  009B               	movwf	27	;volatile
  1854                           
  1855                           ;UART.c: 13:     SPBRGH = 0x00;
  1856  0173  019C               	clrf	28	;volatile
  1857                           
  1858                           ;UART.c: 15:     BRGH = 1;
  1859  0174  151E               	bsf	30,2	;volatile
  1860                           
  1861                           ;UART.c: 16:     TXEN = 1;
  1862  0175  169E               	bsf	30,5	;volatile
  1863                           
  1864                           ;UART.c: 17:     CREN = 1;
  1865  0176  161D               	bsf	29,4	;volatile
  1866                           
  1867                           ;UART.c: 18:     SYNC = 0;
  1868  0177  121E               	bcf	30,4	;volatile
  1869                           
  1870                           ;UART.c: 19:     SPEN = 1;
  1871  0178  179D               	bsf	29,7	;volatile
  1872  0179  0008               	return
  1873  017A                     __end_of_UARTinit:	
  1874                           
  1875                           	psect	text4
  1876  0118                     __ptext4:	
  1877 ;; *************** function _UARTRx *****************
  1878 ;; Defined at:
  1879 ;;		line 38 in file "UART.c"
  1880 ;; Parameters:    Size  Location     Type
  1881 ;;		None
  1882 ;; Auto vars:     Size  Location     Type
  1883 ;;  receivedStri    2   10[COMMON] unsigned char [2]
  1884 ;; Return value:  Size  Location     Type
  1885 ;;                  1    wreg      void 
  1886 ;; Registers used:
  1887 ;;		wreg, fsr0l, fsr0h, status,2, status,0, pclath, cstack
  1888 ;; Tracked objects:
  1889 ;;		On entry : 0/0
  1890 ;;		On exit  : 0/0
  1891 ;;		Unchanged: 0/0
  1892 ;; Data sizes:     COMMON   BANK0   BANK1   BANK2   BANK3   BANK4   BANK5   BANK6   BANK7   BANK8   BANK9  BANK10  BANK1
      +1  BANK12
  1893 ;;      Params:         0       0       0       0       0       0       0       0       0       0       0       0       
      +0       0
  1894 ;;      Locals:         2       0       0       0       0       0       0       0       0       0       0       0       
      +0       0
  1895 ;;      Temps:          1       0       0       0       0       0       0       0       0       0       0       0       
      +0       0
  1896 ;;      Totals:         3       0       0       0       0       0       0       0       0       0       0       0       
      +0       0
  1897 ;;Total ram usage:        3 bytes
  1898 ;; Hardware stack levels used:    1
  1899 ;; Hardware stack levels required when called:    3
  1900 ;; This function calls:
  1901 ;;		_UARTTx
  1902 ;; This function is called by:
  1903 ;;		_main
  1904 ;; This function uses a non-reentrant model
  1905 ;;
  1906                           
  1907                           
  1908                           ;psect for function _UARTRx
  1909  0118                     _UARTRx:	
  1910                           
  1911                           ;UART.c: 40:     char receivedString[2];;UART.c: 41:     if (uartRX)
  1912                           
  1913                           ;incstack = 0
  1914                           ; Regs used in _UARTRx: [wreg-fsr0h+status,2+status,0+pclath+cstack]
  1915  0118  087C               	movf	_uartRX,w	;volatile
  1916  0119  1903               	btfsc	3,2
  1917  011A  0008               	return
  1918                           
  1919                           ;UART.c: 42:     {;UART.c: 43:         UARTTx("Received Data: \n");
  1920  011B  305B               	movlw	low (STR_3| (0+32768))
  1921  011C  00F6               	movwf	UARTTx@sendString
  1922  011D  3081               	movlw	high (STR_3| (0+32768))
  1923  011E  00F7               	movwf	UARTTx@sendString+1
  1924  011F  3180  20DC  3181   	fcall	_UARTTx
  1925                           
  1926                           ;UART.c: 44:         receivedString[0] = RCREG;
  1927  0122  0023               	movlb	3	; select bank3
  1928  0123  0819               	movf	25,w	;volatile
  1929  0124  00F9               	movwf	??_UARTRx
  1930  0125  0879               	movf	??_UARTRx,w
  1931  0126  00FA               	movwf	UARTRx@receivedString
  1932                           
  1933                           ;UART.c: 45:         receivedString[1] = '\0';
  1934  0127  01FB               	clrf	UARTRx@receivedString+1
  1935                           
  1936                           ;UART.c: 46:         UARTTx(receivedString);
  1937  0128  307A               	movlw	low UARTRx@receivedString
  1938  0129  00F6               	movwf	UARTTx@sendString
  1939  012A  3000               	movlw	high UARTRx@receivedString
  1940  012B  00F7               	movwf	UARTTx@sendString+1
  1941  012C  3180  20DC         	fcall	_UARTTx
  1942  012E  0008               	return
  1943  012F                     __end_of_UARTRx:	
  1944                           
  1945                           	psect	text5
  1946  01A7                     __ptext5:	
  1947 ;; *************** function _Timer0Init *****************
  1948 ;; Defined at:
  1949 ;;		line 4 in file "Timer.c"
  1950 ;; Parameters:    Size  Location     Type
  1951 ;;		None
  1952 ;; Auto vars:     Size  Location     Type
  1953 ;;		None
  1954 ;; Return value:  Size  Location     Type
  1955 ;;                  1    wreg      void 
  1956 ;; Registers used:
  1957 ;;		wreg
  1958 ;; Tracked objects:
  1959 ;;		On entry : 0/0
  1960 ;;		On exit  : 0/0
  1961 ;;		Unchanged: 0/0
  1962 ;; Data sizes:     COMMON   BANK0   BANK1   BANK2   BANK3   BANK4   BANK5   BANK6   BANK7   BANK8   BANK9  BANK10  BANK1
      +1  BANK12
  1963 ;;      Params:         0       0       0       0       0       0       0       0       0       0       0       0       
      +0       0
  1964 ;;      Locals:         0       0       0       0       0       0       0       0       0       0       0       0       
      +0       0
  1965 ;;      Temps:          0       0       0       0       0       0       0       0       0       0       0       0       
      +0       0
  1966 ;;      Totals:         0       0       0       0       0       0       0       0       0       0       0       0       
      +0       0
  1967 ;;Total ram usage:        0 bytes
  1968 ;; Hardware stack levels used:    1
  1969 ;; Hardware stack levels required when called:    1
  1970 ;; This function calls:
  1971 ;;		Nothing
  1972 ;; This function is called by:
  1973 ;;		_main
  1974 ;; This function uses a non-reentrant model
  1975 ;;
  1976                           
  1977                           
  1978                           ;psect for function _Timer0Init
  1979  01A7                     _Timer0Init:	
  1980                           
  1981                           ;Timer.c: 6:     OPTION_REG = 0x42;
  1982                           
  1983                           ;incstack = 0
  1984                           ; Regs used in _Timer0Init: [wreg]
  1985  01A7  3042               	movlw	66
  1986  01A8  0021               	movlb	1	; select bank1
  1987  01A9  0095               	movwf	21	;volatile
  1988  01AA  0008               	return
  1989  01AB                     __end_of_Timer0Init:	
  1990                           
  1991                           	psect	text6
  1992  0146                     __ptext6:	
  1993 ;; *************** function _LEDinit *****************
  1994 ;; Defined at:
  1995 ;;		line 52 in file "LEDApplication.c"
  1996 ;; Parameters:    Size  Location     Type
  1997 ;;		None
  1998 ;; Auto vars:     Size  Location     Type
  1999 ;;		None
  2000 ;; Return value:  Size  Location     Type
  2001 ;;                  1    wreg      void 
  2002 ;; Registers used:
  2003 ;;		wreg, status,2
  2004 ;; Tracked objects:
  2005 ;;		On entry : 0/0
  2006 ;;		On exit  : 0/0
  2007 ;;		Unchanged: 0/0
  2008 ;; Data sizes:     COMMON   BANK0   BANK1   BANK2   BANK3   BANK4   BANK5   BANK6   BANK7   BANK8   BANK9  BANK10  BANK1
      +1  BANK12
  2009 ;;      Params:         0       0       0       0       0       0       0       0       0       0       0       0       
      +0       0
  2010 ;;      Locals:         0       0       0       0       0       0       0       0       0       0       0       0       
      +0       0
  2011 ;;      Temps:          0       0       0       0       0       0       0       0       0       0       0       0       
      +0       0
  2012 ;;      Totals:         0       0       0       0       0       0       0       0       0       0       0       0       
      +0       0
  2013 ;;Total ram usage:        0 bytes
  2014 ;; Hardware stack levels used:    1
  2015 ;; Hardware stack levels required when called:    1
  2016 ;; This function calls:
  2017 ;;		Nothing
  2018 ;; This function is called by:
  2019 ;;		_main
  2020 ;; This function uses a non-reentrant model
  2021 ;;
  2022                           
  2023                           
  2024                           ;psect for function _LEDinit
  2025  0146                     _LEDinit:	
  2026                           
  2027                           ;LEDApplication.c: 54:     LATCbits.LATC2 = 1;
  2028                           
  2029                           ;incstack = 0
  2030                           ; Regs used in _LEDinit: [wreg+status,2]
  2031  0146  0022               	movlb	2	; select bank2
  2032  0147  150E               	bsf	14,2	;volatile
  2033                           
  2034                           ;LEDApplication.c: 55:     ledData.LEDCurrentState = LED_ON;
  2035  0148  0020               	movlb	0	; select bank0
  2036  0149  01A0               	clrf	_ledData
  2037                           
  2038                           ;LEDApplication.c: 56:     ledData.LEDOnTime = 0;
  2039  014A  3000               	movlw	0
  2040  014B  00A4               	movwf	_ledData+4
  2041  014C  3000               	movlw	0
  2042  014D  00A3               	movwf	_ledData+3
  2043  014E  3000               	movlw	0
  2044  014F  00A2               	movwf	_ledData+2
  2045  0150  3000               	movlw	0
  2046  0151  00A1               	movwf	_ledData+1
  2047                           
  2048                           ;LEDApplication.c: 57:     ledData.LEDOffTime = 0;
  2049  0152  3000               	movlw	0
  2050  0153  00A8               	movwf	_ledData+8
  2051  0154  3000               	movlw	0
  2052  0155  00A7               	movwf	_ledData+7
  2053  0156  3000               	movlw	0
  2054  0157  00A6               	movwf	_ledData+6
  2055  0158  3000               	movlw	0
  2056  0159  00A5               	movwf	_ledData+5
  2057  015A  0008               	return
  2058  015B                     __end_of_LEDinit:	
  2059                           
  2060                           	psect	text7
  2061  004C                     __ptext7:	
  2062 ;; *************** function _LEDProcess *****************
  2063 ;; Defined at:
  2064 ;;		line 6 in file "LEDApplication.c"
  2065 ;; Parameters:    Size  Location     Type
  2066 ;;		None
  2067 ;; Auto vars:     Size  Location     Type
  2068 ;;		None
  2069 ;; Return value:  Size  Location     Type
  2070 ;;                  1    wreg      void 
  2071 ;; Registers used:
  2072 ;;		wreg, fsr0l, fsr0h, status,2, status,0, pclath, cstack
  2073 ;; Tracked objects:
  2074 ;;		On entry : 0/0
  2075 ;;		On exit  : 0/0
  2076 ;;		Unchanged: 0/0
  2077 ;; Data sizes:     COMMON   BANK0   BANK1   BANK2   BANK3   BANK4   BANK5   BANK6   BANK7   BANK8   BANK9  BANK10  BANK1
      +1  BANK12
  2078 ;;      Params:         0       0       0       0       0       0       0       0       0       0       0       0       
      +0       0
  2079 ;;      Locals:         0       0       0       0       0       0       0       0       0       0       0       0       
      +0       0
  2080 ;;      Temps:          0       4       0       0       0       0       0       0       0       0       0       0       
      +0       0
  2081 ;;      Totals:         0       4       0       0       0       0       0       0       0       0       0       0       
      +0       0
  2082 ;;Total ram usage:        4 bytes
  2083 ;; Hardware stack levels used:    1
  2084 ;; Hardware stack levels required when called:    3
  2085 ;; This function calls:
  2086 ;;		_UARTTx
  2087 ;; This function is called by:
  2088 ;;		_main
  2089 ;; This function uses a non-reentrant model
  2090 ;;
  2091                           
  2092                           
  2093                           ;psect for function _LEDProcess
  2094  004C                     _LEDProcess:	
  2095                           
  2096                           ;LEDApplication.c: 9:     switch(ledData.LEDCurrentState)
  2097                           
  2098                           ;incstack = 0
  2099                           ; Regs used in _LEDProcess: [wreg-fsr0h+status,2+status,0+pclath+cstack]
  2100  004C  28C7               	goto	l1100
  2101  004D                     l1064:	
  2102                           
  2103                           ;LEDApplication.c: 12:             UARTTx("LED OFF\n");
  2104  004D  3086               	movlw	low (STR_1| (0+32768))
  2105  004E  00F6               	movwf	UARTTx@sendString
  2106  004F  3081               	movlw	high (STR_1| (0+32768))
  2107  0050  00F7               	movwf	UARTTx@sendString+1
  2108  0051  3180  20DC         	fcall	_UARTTx
  2109                           
  2110                           ;LEDApplication.c: 13:             LATCbits.LATC2 = 0;
  2111  0053  0022               	movlb	2	; select bank2
  2112  0054  110E               	bcf	14,2	;volatile
  2113                           
  2114                           ;LEDApplication.c: 14:             ledData.LEDOffTime = milliSec;
  2115  0055  0020               	movlb	0	; select bank0
  2116  0056  0830               	movf	_milliSec+3,w	;volatile
  2117  0057  00A8               	movwf	_ledData+8
  2118  0058  082F               	movf	_milliSec+2,w	;volatile
  2119  0059  00A7               	movwf	_ledData+7
  2120  005A  082E               	movf	_milliSec+1,w	;volatile
  2121  005B  00A6               	movwf	_ledData+6
  2122  005C  082D               	movf	_milliSec,w	;volatile
  2123  005D  00A5               	movwf	_ledData+5
  2124  005E                     l1070:	
  2125                           
  2126                           ;LEDApplication.c: 15:             ledData.LEDCurrentState = LED_WAIT;
  2127  005E  3002               	movlw	2
  2128  005F  00B4               	movwf	??_LEDProcess
  2129  0060  0834               	movf	??_LEDProcess,w
  2130  0061  00A0               	movwf	_ledData
  2131                           
  2132                           ;LEDApplication.c: 16:             break;
  2133  0062  0008               	return
  2134  0063                     l1072:	
  2135                           
  2136                           ;LEDApplication.c: 19:             UARTTx("LED ON\n");
  2137  0063  308F               	movlw	low (STR_2| (0+32768))
  2138  0064  00F6               	movwf	UARTTx@sendString
  2139  0065  3081               	movlw	high (STR_2| (0+32768))
  2140  0066  00F7               	movwf	UARTTx@sendString+1
  2141  0067  3180  20DC  3180   	fcall	_UARTTx
  2142                           
  2143                           ;LEDApplication.c: 20:             LATCbits.LATC2 = 1;
  2144  006A  0022               	movlb	2	; select bank2
  2145  006B  150E               	bsf	14,2	;volatile
  2146                           
  2147                           ;LEDApplication.c: 21:             ledData.LEDOnTime = milliSec;
  2148  006C  0020               	movlb	0	; select bank0
  2149  006D  0830               	movf	_milliSec+3,w	;volatile
  2150  006E  00A4               	movwf	_ledData+4
  2151  006F  082F               	movf	_milliSec+2,w	;volatile
  2152  0070  00A3               	movwf	_ledData+3
  2153  0071  082E               	movf	_milliSec+1,w	;volatile
  2154  0072  00A2               	movwf	_ledData+2
  2155  0073  082D               	movf	_milliSec,w	;volatile
  2156  0074  00A1               	movwf	_ledData+1
  2157  0075  285E               	goto	l1070
  2158  0076                     l1080:	
  2159                           
  2160                           ;LEDApplication.c: 26:             if (ledData.LEDOnTime > 0)
  2161  0076  0824               	movf	_ledData+4,w
  2162  0077  0423               	iorwf	_ledData+3,w
  2163  0078  0422               	iorwf	_ledData+2,w
  2164  0079  0421               	iorwf	_ledData+1,w
  2165  007A  1903               	skipnz
  2166  007B  289F               	goto	l1088
  2167                           
  2168                           ;LEDApplication.c: 27:             {;LEDApplication.c: 28:                 if (milliSec 
      +                          - ledData.LEDOnTime >= 2000)
  2169  007C  0821               	movf	_ledData+1,w
  2170  007D  022D               	subwf	_milliSec,w	;volatile
  2171  007E  00B4               	movwf	??_LEDProcess
  2172  007F  0822               	movf	_ledData+2,w
  2173  0080  3B2E               	subwfb	_milliSec+1,w	;volatile
  2174  0081  00B5               	movwf	??_LEDProcess+1
  2175  0082  0823               	movf	_ledData+3,w
  2176  0083  3B2F               	subwfb	_milliSec+2,w	;volatile
  2177  0084  00B6               	movwf	??_LEDProcess+2
  2178  0085  0824               	movf	_ledData+4,w
  2179  0086  3B30               	subwfb	_milliSec+3,w	;volatile
  2180  0087  00B7               	movwf	??_LEDProcess+3
  2181  0088  0837               	movf	??_LEDProcess+3,w
  2182  0089  1D03               	btfss	3,2
  2183  008A  2894               	goto	l1084
  2184  008B  0836               	movf	??_LEDProcess+2,w
  2185  008C  1D03               	btfss	3,2
  2186  008D  2894               	goto	l1084
  2187  008E  30D0               	movlw	208
  2188  008F  0234               	subwf	??_LEDProcess,w
  2189  0090  3007               	movlw	7
  2190  0091  3B35               	subwfb	??_LEDProcess+1,w
  2191  0092  1C03               	btfss	3,0
  2192  0093  0008               	return
  2193  0094                     l1084:	
  2194                           
  2195                           ;LEDApplication.c: 29:                 {;LEDApplication.c: 30:                     ledDa
      +                          ta.LEDOnTime = 0;
  2196  0094  3000               	movlw	0
  2197  0095  00A4               	movwf	_ledData+4
  2198  0096  3000               	movlw	0
  2199  0097  00A3               	movwf	_ledData+3
  2200  0098  3000               	movlw	0
  2201  0099  00A2               	movwf	_ledData+2
  2202  009A  3000               	movlw	0
  2203  009B  00A1               	movwf	_ledData+1
  2204                           
  2205                           ;LEDApplication.c: 31:                     ledData.LEDCurrentState = LED_OFF;
  2206  009C  01A0               	clrf	_ledData
  2207  009D  0AA0               	incf	_ledData,f
  2208  009E  0008               	return
  2209  009F                     l1088:	
  2210  009F  0828               	movf	_ledData+8,w
  2211  00A0  0427               	iorwf	_ledData+7,w
  2212  00A1  0426               	iorwf	_ledData+6,w
  2213  00A2  0425               	iorwf	_ledData+5,w
  2214  00A3  1903               	skipnz
  2215  00A4  28C5               	goto	l1094
  2216                           
  2217                           ;LEDApplication.c: 36:             {;LEDApplication.c: 37:                 if (milliSec 
      +                          - ledData.LEDOffTime >= 2000)
  2218  00A5  0825               	movf	_ledData+5,w
  2219  00A6  022D               	subwf	_milliSec,w	;volatile
  2220  00A7  00B4               	movwf	??_LEDProcess
  2221  00A8  0826               	movf	_ledData+6,w
  2222  00A9  3B2E               	subwfb	_milliSec+1,w	;volatile
  2223  00AA  00B5               	movwf	??_LEDProcess+1
  2224  00AB  0827               	movf	_ledData+7,w
  2225  00AC  3B2F               	subwfb	_milliSec+2,w	;volatile
  2226  00AD  00B6               	movwf	??_LEDProcess+2
  2227  00AE  0828               	movf	_ledData+8,w
  2228  00AF  3B30               	subwfb	_milliSec+3,w	;volatile
  2229  00B0  00B7               	movwf	??_LEDProcess+3
  2230  00B1  0837               	movf	??_LEDProcess+3,w
  2231  00B2  1D03               	btfss	3,2
  2232  00B3  28BD               	goto	l1092
  2233  00B4  0836               	movf	??_LEDProcess+2,w
  2234  00B5  1D03               	btfss	3,2
  2235  00B6  28BD               	goto	l1092
  2236  00B7  30D0               	movlw	208
  2237  00B8  0234               	subwf	??_LEDProcess,w
  2238  00B9  3007               	movlw	7
  2239  00BA  3B35               	subwfb	??_LEDProcess+1,w
  2240  00BB  1C03               	btfss	3,0
  2241  00BC  0008               	return
  2242  00BD                     l1092:	
  2243                           
  2244                           ;LEDApplication.c: 38:                 {;LEDApplication.c: 39:                     ledDa
      +                          ta.LEDOffTime = 0;
  2245  00BD  3000               	movlw	0
  2246  00BE  00A8               	movwf	_ledData+8
  2247  00BF  3000               	movlw	0
  2248  00C0  00A7               	movwf	_ledData+7
  2249  00C1  3000               	movlw	0
  2250  00C2  00A6               	movwf	_ledData+6
  2251  00C3  3000               	movlw	0
  2252  00C4  00A5               	movwf	_ledData+5
  2253  00C5                     l1094:	
  2254                           
  2255                           ;LEDApplication.c: 40:                     ledData.LEDCurrentState = LED_ON;
  2256  00C5  01A0               	clrf	_ledData
  2257                           
  2258                           ;LEDApplication.c: 48:             break;
  2259  00C6  0008               	return
  2260  00C7                     l1100:	
  2261  00C7  0020               	movlb	0	; select bank0
  2262  00C8  0820               	movf	_ledData,w
  2263  00C9  00B4               	movwf	??_LEDProcess
  2264  00CA  01B5               	clrf	??_LEDProcess+1
  2265                           
  2266                           ; Switch on 2 bytes has been partitioned into a top level switch of size 1, and 1 sub-sw
      +                          itches
  2267                           ; Switch size 1, requested type "simple"
  2268                           ; Number of cases is 1, Range of values is 0 to 0
  2269                           ; switch strategies available:
  2270                           ; Name         Instructions Cycles
  2271                           ; simple_byte            4     3 (average)
  2272                           ; direct_byte            8     6 (fixed)
  2273                           ; jumptable            260     6 (fixed)
  2274                           ;	Chosen strategy is simple_byte
  2275  00CB  0835               	movf	??_LEDProcess+1,w
  2276  00CC  3A00               	xorlw	0	; case 0
  2277  00CD  1903               	skipnz
  2278  00CE  28D0               	goto	l1136
  2279  00CF  28DB               	goto	l62
  2280  00D0                     l1136:	
  2281                           
  2282                           ; Switch size 1, requested type "simple"
  2283                           ; Number of cases is 3, Range of values is 0 to 2
  2284                           ; switch strategies available:
  2285                           ; Name         Instructions Cycles
  2286                           ; simple_byte           10     6 (average)
  2287                           ; direct_byte           12     6 (fixed)
  2288                           ; jumptable            260     6 (fixed)
  2289                           ;	Chosen strategy is simple_byte
  2290  00D0  0834               	movf	??_LEDProcess,w
  2291  00D1  3A00               	xorlw	0	; case 0
  2292  00D2  1903               	skipnz
  2293  00D3  2863               	goto	l1072
  2294  00D4  3A01               	xorlw	1	; case 1
  2295  00D5  1903               	skipnz
  2296  00D6  284D               	goto	l1064
  2297  00D7  3A03               	xorlw	3	; case 2
  2298  00D8  1903               	skipnz
  2299  00D9  2876               	goto	l1080
  2300  00DA  28DB               	goto	l62
  2301  00DB                     l62:	
  2302  00DB  0008               	return
  2303  00DC                     __end_of_LEDProcess:	
  2304                           
  2305                           	psect	text8
  2306  00DC                     __ptext8:	
  2307 ;; *************** function _UARTTx *****************
  2308 ;; Defined at:
  2309 ;;		line 22 in file "UART.c"
  2310 ;; Parameters:    Size  Location     Type
  2311 ;;  sendString      2    6[COMMON] PTR unsigned char 
  2312 ;;		 -> UARTRx@receivedString(2), STR_3(17), STR_2(8), STR_1(9), 
  2313 ;; Auto vars:     Size  Location     Type
  2314 ;;		None
  2315 ;; Return value:  Size  Location     Type
  2316 ;;                  1    wreg      unsigned char 
  2317 ;; Registers used:
  2318 ;;		wreg, fsr0l, fsr0h, status,2, status,0, pclath, cstack
  2319 ;; Tracked objects:
  2320 ;;		On entry : 0/0
  2321 ;;		On exit  : 0/0
  2322 ;;		Unchanged: 0/0
  2323 ;; Data sizes:     COMMON   BANK0   BANK1   BANK2   BANK3   BANK4   BANK5   BANK6   BANK7   BANK8   BANK9  BANK10  BANK1
      +1  BANK12
  2324 ;;      Params:         2       0       0       0       0       0       0       0       0       0       0       0       
      +0       0
  2325 ;;      Locals:         0       0       0       0       0       0       0       0       0       0       0       0       
      +0       0
  2326 ;;      Temps:          1       0       0       0       0       0       0       0       0       0       0       0       
      +0       0
  2327 ;;      Totals:         3       0       0       0       0       0       0       0       0       0       0       0       
      +0       0
  2328 ;;Total ram usage:        3 bytes
  2329 ;; Hardware stack levels used:    1
  2330 ;; Hardware stack levels required when called:    2
  2331 ;; This function calls:
  2332 ;;		_strlen
  2333 ;; This function is called by:
  2334 ;;		_LEDProcess
  2335 ;;		_UARTRx
  2336 ;; This function uses a non-reentrant model
  2337 ;;
  2338                           
  2339                           
  2340                           ;psect for function _UARTTx
  2341  00DC                     _UARTTx:	
  2342                           
  2343                           ;UART.c: 22: uint8_t UARTTx(char *sendString);UART.c: 23: {;UART.c: 24:     if (strlen(s
      +                          endString) > 128)
  2344                           
  2345                           ;incstack = 0
  2346                           ; Regs used in _UARTTx: [wreg-fsr0h+status,2+status,0+pclath+cstack]
  2347  00DC  0877               	movf	UARTTx@sendString+1,w
  2348  00DD  00F2               	movwf	strlen@s+1
  2349  00DE  0876               	movf	UARTTx@sendString,w
  2350  00DF  00F1               	movwf	strlen@s
  2351  00E0  3181  212F  3180   	fcall	_strlen
  2352  00E3  3000               	movlw	0
  2353  00E4  0272               	subwf	?_strlen+1,w
  2354  00E5  3081               	movlw	129
  2355  00E6  1903               	skipnz
  2356  00E7  0271               	subwf	?_strlen,w
  2357  00E8  1803               	btfsc	3,0
  2358  00E9  0008               	return
  2359  00EA                     l952:	
  2360                           
  2361                           ;UART.c: 29:     while (*sendString)
  2362  00EA  0876               	movf	UARTTx@sendString,w
  2363  00EB  0084               	movwf	4
  2364  00EC  0877               	movf	UARTTx@sendString+1,w
  2365  00ED  0085               	movwf	5
  2366  00EE  0012               	moviw fsr0++
  2367  00EF  1903               	btfsc	3,2
  2368  00F0  0008               	return
  2369  00F1                     l145:	
  2370  00F1  0023               	movlb	3	; select bank3
  2371  00F2  1C9E               	btfss	30,1	;volatile
  2372  00F3  28F1               	goto	l145
  2373                           
  2374                           ;UART.c: 32:         TXREG = *sendString;
  2375  00F4  0876               	movf	UARTTx@sendString,w
  2376  00F5  0084               	movwf	4
  2377  00F6  0877               	movf	UARTTx@sendString+1,w
  2378  00F7  0085               	movwf	5
  2379  00F8  0800               	movf	0,w	;code access
  2380  00F9  009A               	movwf	26	;volatile
  2381                           
  2382                           ;UART.c: 33:         sendString ++;
  2383  00FA  3001               	movlw	1
  2384  00FB  07F6               	addwf	UARTTx@sendString,f
  2385  00FC  3000               	movlw	0
  2386  00FD  3DF7               	addwfc	UARTTx@sendString+1,f
  2387  00FE  28EA               	goto	l952
  2388  00FF                     __end_of_UARTTx:	
  2389                           
  2390                           	psect	text9
  2391  012F                     __ptext9:	
  2392 ;; *************** function _strlen *****************
  2393 ;; Defined at:
  2394 ;;		line 12 in file "C:\Program Files (x86)\Microchip\xc8\v2.05\pic\sources\c99\common\strlen.c"
  2395 ;; Parameters:    Size  Location     Type
  2396 ;;  s               2    1[COMMON] PTR const unsigned char 
  2397 ;;		 -> UARTRx@receivedString(2), STR_3(17), STR_2(8), STR_1(9), 
  2398 ;; Auto vars:     Size  Location     Type
  2399 ;;  a               2    4[COMMON] PTR const unsigned char 
  2400 ;;		 -> UARTRx@receivedString(2), STR_3(17), STR_2(8), STR_1(9), 
  2401 ;; Return value:  Size  Location     Type
  2402 ;;                  2    1[COMMON] unsigned int 
  2403 ;; Registers used:
  2404 ;;		wreg, fsr0l, fsr0h, status,2, status,0
  2405 ;; Tracked objects:
  2406 ;;		On entry : 0/0
  2407 ;;		On exit  : 0/0
  2408 ;;		Unchanged: 0/0
  2409 ;; Data sizes:     COMMON   BANK0   BANK1   BANK2   BANK3   BANK4   BANK5   BANK6   BANK7   BANK8   BANK9  BANK10  BANK1
      +1  BANK12
  2410 ;;      Params:         2       0       0       0       0       0       0       0       0       0       0       0       
      +0       0
  2411 ;;      Locals:         2       0       0       0       0       0       0       0       0       0       0       0       
      +0       0
  2412 ;;      Temps:          1       0       0       0       0       0       0       0       0       0       0       0       
      +0       0
  2413 ;;      Totals:         5       0       0       0       0       0       0       0       0       0       0       0       
      +0       0
  2414 ;;Total ram usage:        5 bytes
  2415 ;; Hardware stack levels used:    1
  2416 ;; Hardware stack levels required when called:    1
  2417 ;; This function calls:
  2418 ;;		Nothing
  2419 ;; This function is called by:
  2420 ;;		_UARTTx
  2421 ;; This function uses a non-reentrant model
  2422 ;;
  2423                           
  2424                           
  2425                           ;psect for function _strlen
  2426  012F                     _strlen:	
  2427                           
  2428                           ;incstack = 0
  2429                           ; Regs used in _strlen: [wreg-fsr0h+status,2+status,0]
  2430  012F  0872               	movf	strlen@s+1,w
  2431  0130  00F5               	movwf	strlen@a+1
  2432  0131  0871               	movf	strlen@s,w
  2433  0132  00F4               	movwf	strlen@a
  2434  0133                     l938:	
  2435  0133  0871               	movf	strlen@s,w
  2436  0134  0084               	movwf	4
  2437  0135  0872               	movf	strlen@s+1,w
  2438  0136  0085               	movwf	5
  2439  0137  0012               	moviw fsr0++
  2440  0138  1903               	btfsc	3,2
  2441  0139  293F               	goto	l940
  2442  013A  3001               	movlw	1
  2443  013B  07F1               	addwf	strlen@s,f
  2444  013C  3000               	movlw	0
  2445  013D  3DF2               	addwfc	strlen@s+1,f
  2446  013E  2933               	goto	l938
  2447  013F                     l940:	
  2448  013F  0874               	movf	strlen@a,w
  2449  0140  0271               	subwf	strlen@s,w
  2450  0141  00F1               	movwf	?_strlen
  2451  0142  0875               	movf	strlen@a+1,w
  2452  0143  3B72               	subwfb	strlen@s+1,w
  2453  0144  00F2               	movwf	?_strlen+1
  2454  0145  0008               	return
  2455  0146                     __end_of_strlen:	
  2456                           
  2457                           	psect	text10
  2458  019D                     __ptext10:	
  2459 ;; *************** function _InterruptInit *****************
  2460 ;; Defined at:
  2461 ;;		line 32 in file "InterruptHandler.c"
  2462 ;; Parameters:    Size  Location     Type
  2463 ;;		None
  2464 ;; Auto vars:     Size  Location     Type
  2465 ;;		None
  2466 ;; Return value:  Size  Location     Type
  2467 ;;                  1    wreg      void 
  2468 ;; Registers used:
  2469 ;;		None
  2470 ;; Tracked objects:
  2471 ;;		On entry : 0/0
  2472 ;;		On exit  : 0/0
  2473 ;;		Unchanged: 0/0
  2474 ;; Data sizes:     COMMON   BANK0   BANK1   BANK2   BANK3   BANK4   BANK5   BANK6   BANK7   BANK8   BANK9  BANK10  BANK1
      +1  BANK12
  2475 ;;      Params:         0       0       0       0       0       0       0       0       0       0       0       0       
      +0       0
  2476 ;;      Locals:         0       0       0       0       0       0       0       0       0       0       0       0       
      +0       0
  2477 ;;      Temps:          0       0       0       0       0       0       0       0       0       0       0       0       
      +0       0
  2478 ;;      Totals:         0       0       0       0       0       0       0       0       0       0       0       0       
      +0       0
  2479 ;;Total ram usage:        0 bytes
  2480 ;; Hardware stack levels used:    1
  2481 ;; Hardware stack levels required when called:    1
  2482 ;; This function calls:
  2483 ;;		Nothing
  2484 ;; This function is called by:
  2485 ;;		_main
  2486 ;; This function uses a non-reentrant model
  2487 ;;
  2488                           
  2489                           
  2490                           ;psect for function _InterruptInit
  2491  019D                     _InterruptInit:	
  2492                           
  2493                           ;InterruptHandler.c: 34:     GIE = 1;
  2494                           
  2495                           ;incstack = 0
  2496                           ; Regs used in _InterruptInit: []
  2497  019D  178B               	bsf	11,7	;volatile
  2498                           
  2499                           ;InterruptHandler.c: 35:     PEIE = 1;
  2500  019E  170B               	bsf	11,6	;volatile
  2501                           
  2502                           ;InterruptHandler.c: 36:     TMR0IE = 1;
  2503  019F  168B               	bsf	11,5	;volatile
  2504                           
  2505                           ;InterruptHandler.c: 37:     RCIE = 1;
  2506  01A0  0021               	movlb	1	; select bank1
  2507  01A1  1691               	bsf	17,5	;volatile
  2508  01A2  0008               	return
  2509  01A3                     __end_of_InterruptInit:	
  2510                           
  2511                           	psect	intentry
  2512  0004                     __pintentry:	
  2513 ;; *************** function _timer0Interrupt *****************
  2514 ;; Defined at:
  2515 ;;		line 11 in file "InterruptHandler.c"
  2516 ;; Parameters:    Size  Location     Type
  2517 ;;		None
  2518 ;; Auto vars:     Size  Location     Type
  2519 ;;		None
  2520 ;; Return value:  Size  Location     Type
  2521 ;;                  1    wreg      void 
  2522 ;; Registers used:
  2523 ;;		wreg, status,2, status,0
  2524 ;; Tracked objects:
  2525 ;;		On entry : 0/0
  2526 ;;		On exit  : 0/0
  2527 ;;		Unchanged: 0/0
  2528 ;; Data sizes:     COMMON   BANK0   BANK1   BANK2   BANK3   BANK4   BANK5   BANK6   BANK7   BANK8   BANK9  BANK10  BANK1
      +1  BANK12
  2529 ;;      Params:         0       0       0       0       0       0       0       0       0       0       0       0       
      +0       0
  2530 ;;      Locals:         0       0       0       0       0       0       0       0       0       0       0       0       
      +0       0
  2531 ;;      Temps:          1       0       0       0       0       0       0       0       0       0       0       0       
      +0       0
  2532 ;;      Totals:         1       0       0       0       0       0       0       0       0       0       0       0       
      +0       0
  2533 ;;Total ram usage:        1 bytes
  2534 ;; Hardware stack levels used:    1
  2535 ;; This function calls:
  2536 ;;		Nothing
  2537 ;; This function is called by:
  2538 ;;		Interrupt level 1
  2539 ;; This function uses a non-reentrant model
  2540 ;;
  2541                           
  2542  0004                     _timer0Interrupt:	
  2543                           
  2544                           ;incstack = 0
  2545  0004  147E               	bsf	126,0	;set compiler interrupt flag (level 1)
  2546                           
  2547                           ; Regs used in _timer0Interrupt: [wreg+status,2+status,0]
  2548  0005  3180               	pagesel	$
  2549                           
  2550                           ;InterruptHandler.c: 13:     if (TMR0IF == 1)
  2551  0006  1D0B               	btfss	11,2	;volatile
  2552  0007  2827               	goto	i1l1038
  2553                           
  2554                           ;InterruptHandler.c: 14:     {;InterruptHandler.c: 15:         TMR0IF = 0;
  2555  0008  110B               	bcf	11,2	;volatile
  2556                           
  2557                           ;InterruptHandler.c: 16:         milliSec ++;
  2558  0009  3001               	movlw	1
  2559  000A  0020               	movlb	0	; select bank0
  2560  000B  07AD               	addwf	_milliSec,f	;volatile
  2561  000C  3000               	movlw	0
  2562  000D  3DAE               	addwfc	_milliSec+1,f	;volatile
  2563  000E  3000               	movlw	0
  2564  000F  3DAF               	addwfc	_milliSec+2,f	;volatile
  2565  0010  3000               	movlw	0
  2566  0011  3DB0               	addwfc	_milliSec+3,f	;volatile
  2567                           
  2568                           ;InterruptHandler.c: 17:         secCounter ++;
  2569  0012  3001               	movlw	1
  2570  0013  07B1               	addwf	_secCounter,f	;volatile
  2571  0014  3000               	movlw	0
  2572  0015  3DB2               	addwfc	_secCounter+1,f	;volatile
  2573                           
  2574                           ;InterruptHandler.c: 18:         if (secCounter == 1000)
  2575  0016  30E8               	movlw	232
  2576  0017  0631               	xorwf	_secCounter,w	;volatile
  2577  0018  3003               	movlw	3
  2578  0019  1903               	skipnz
  2579  001A  0632               	xorwf	_secCounter+1,w	;volatile
  2580  001B  1D03               	btfss	3,2
  2581  001C  2827               	goto	i1l1038
  2582                           
  2583                           ;InterruptHandler.c: 19:         {;InterruptHandler.c: 20:             sec ++;
  2584  001D  3001               	movlw	1
  2585  001E  07A9               	addwf	_sec,f	;volatile
  2586  001F  3000               	movlw	0
  2587  0020  3DAA               	addwfc	_sec+1,f	;volatile
  2588  0021  3000               	movlw	0
  2589  0022  3DAB               	addwfc	_sec+2,f	;volatile
  2590  0023  3000               	movlw	0
  2591  0024  3DAC               	addwfc	_sec+3,f	;volatile
  2592                           
  2593                           ;InterruptHandler.c: 21:             secCounter = 0;
  2594  0025  01B1               	clrf	_secCounter	;volatile
  2595  0026  01B2               	clrf	_secCounter+1	;volatile
  2596  0027                     i1l1038:	
  2597                           
  2598                           ;InterruptHandler.c: 25:     if (RCIF == 1)
  2599  0027  0020               	movlb	0	; select bank0
  2600  0028  1E91               	btfss	17,5	;volatile
  2601  0029  282E               	goto	i1l98
  2602                           
  2603                           ;InterruptHandler.c: 26:     {;InterruptHandler.c: 27:         uartRX = 1;
  2604  002A  3001               	movlw	1
  2605  002B  00F0               	movwf	??_timer0Interrupt
  2606  002C  0870               	movf	??_timer0Interrupt,w
  2607  002D  00FC               	movwf	_uartRX	;volatile
  2608  002E                     i1l98:	
  2609  002E  107E               	bcf	126,0	;clear compiler interrupt flag (level 1)
  2610  002F  0009               	retfie
  2611  0030                     __end_of_timer0Interrupt:	
  2612  007E                     btemp	set	126	;btemp
  2613  007E                     int$flags	set	126
  2614  007E                     wtemp0	set	126


Data Sizes:
    Strings     34
    Constant    0
    Data        0
    BSS         21
    Persistent  32
    Stack       0

Auto Spaces:
    Space          Size  Autos    Used
    COMMON           14     12      13
    BANK0            80      4      24
    BANK1            80      0       0
    BANK2            80      0       0
    BANK3            80      0       0
    BANK4            80      0       0
    BANK5            80      0       0
    BANK6            80      0       0
    BANK7            80      0       0
    BANK8            80      0       0
    BANK9            80      0       0
    BANK10           80      0       0
    BANK11            0      0       0
    BANK12            0      0       0

Pointer List with Targets:

    strlen@s	PTR const unsigned char  size(2) Largest target is 17
		 -> UARTRx@receivedString(COMMON[2]), STR_3(CODE[17]), STR_2(CODE[8]), STR_1(CODE[9]), 

    strlen@a	PTR const unsigned char  size(2) Largest target is 17
		 -> UARTRx@receivedString(COMMON[2]), STR_3(CODE[17]), STR_2(CODE[8]), STR_1(CODE[9]), 

    UARTTx@sendString	PTR unsigned char  size(2) Largest target is 17
		 -> UARTRx@receivedString(COMMON[2]), STR_3(CODE[17]), STR_2(CODE[8]), STR_1(CODE[9]), 


Critical Paths under _main in COMMON

    _main->_UARTRx
    _UARTRx->_UARTTx
    _LEDProcess->_UARTTx
    _UARTTx->_strlen

Critical Paths under _timer0Interrupt in COMMON

    None.

Critical Paths under _main in BANK0

    _main->_LEDProcess

Critical Paths under _timer0Interrupt in BANK0

    None.

Critical Paths under _main in BANK1

    None.

Critical Paths under _timer0Interrupt in BANK1

    None.

Critical Paths under _main in BANK2

    None.

Critical Paths under _timer0Interrupt in BANK2

    None.

Critical Paths under _main in BANK3

    None.

Critical Paths under _timer0Interrupt in BANK3

    None.

Critical Paths under _main in BANK4

    None.

Critical Paths under _timer0Interrupt in BANK4

    None.

Critical Paths under _main in BANK5

    None.

Critical Paths under _timer0Interrupt in BANK5

    None.

Critical Paths under _main in BANK6

    None.

Critical Paths under _timer0Interrupt in BANK6

    None.

Critical Paths under _main in BANK7

    None.

Critical Paths under _timer0Interrupt in BANK7

    None.

Critical Paths under _main in BANK8

    None.

Critical Paths under _timer0Interrupt in BANK8

    None.

Critical Paths under _main in BANK9

    None.

Critical Paths under _timer0Interrupt in BANK9

    None.

Critical Paths under _main in BANK10

    None.

Critical Paths under _timer0Interrupt in BANK10

    None.

Critical Paths under _main in BANK11

    None.

Critical Paths under _timer0Interrupt in BANK11

    None.

Critical Paths under _main in BANK12

    None.

Critical Paths under _timer0Interrupt in BANK12

    None.

Call Graph Tables:

 ---------------------------------------------------------------------------------
 (Depth) Function   	        Calls       Base Space   Used Autos Params    Refs
 ---------------------------------------------------------------------------------
 (0) _main                                                 0     0      0    1124
                      _InterruptInit
                         _LEDProcess
                            _LEDinit
                         _Timer0Init
                             _UARTRx
                           _UARTinit
                     _oscillatorInit
                           _portInit
 ---------------------------------------------------------------------------------
 (1) _portInit                                             0     0      0       0
 ---------------------------------------------------------------------------------
 (1) _oscillatorInit                                       0     0      0       0
 ---------------------------------------------------------------------------------
 (1) _UARTinit                                             0     0      0       0
 ---------------------------------------------------------------------------------
 (1) _UARTRx                                               3     3      0     587
                                              9 COMMON     3     3      0
                             _UARTTx
 ---------------------------------------------------------------------------------
 (1) _Timer0Init                                           0     0      0       0
 ---------------------------------------------------------------------------------
 (1) _LEDinit                                              0     0      0       0
 ---------------------------------------------------------------------------------
 (1) _LEDProcess                                           4     4      0     537
                                              0 BANK0      4     4      0
                             _UARTTx
 ---------------------------------------------------------------------------------
 (2) _UARTTx                                               3     1      2     537
                                              6 COMMON     3     1      2
                             _strlen
 ---------------------------------------------------------------------------------
 (3) _strlen                                               5     3      2     166
                                              1 COMMON     5     3      2
 ---------------------------------------------------------------------------------
 (1) _InterruptInit                                        0     0      0       0
 ---------------------------------------------------------------------------------
 Estimated maximum stack depth 3
 ---------------------------------------------------------------------------------
 (Depth) Function   	        Calls       Base Space   Used Autos Params    Refs
 ---------------------------------------------------------------------------------
 (4) _timer0Interrupt                                      1     1      0       0
                                              0 COMMON     1     1      0
 ---------------------------------------------------------------------------------
 Estimated maximum stack depth 4
 ---------------------------------------------------------------------------------

 Call Graph Graphs:

 _main (ROOT)
   _InterruptInit
   _LEDProcess
     _UARTTx
       _strlen
   _LEDinit
   _Timer0Init
   _UARTRx
     _UARTTx
       _strlen
   _UARTinit
   _oscillatorInit
   _portInit

 _timer0Interrupt (ROOT)

 Address spaces:
Name               Size   Autos  Total    Cost      Usage
BIGRAM             3F0      0       0       0        0.0%
EEDATA             100      0       0       0        0.0%
NULL                 0      0       0       0        0.0%
CODE                 0      0       0       0        0.0%
BITCOMMON            E      0       0       1        0.0%
BITSFR0              0      0       0       1        0.0%
SFR0                 0      0       0       1        0.0%
COMMON               E      C       D       2       92.9%
BITSFR1              0      0       0       2        0.0%
SFR1                 0      0       0       2        0.0%
BITSFR2              0      0       0       3        0.0%
SFR2                 0      0       0       3        0.0%
STACK                0      0       0       3        0.0%
BITBANK0            50      0       0       4        0.0%
BITSFR3              0      0       0       4        0.0%
SFR3                 0      0       0       4        0.0%
BANK0               50      4      18       5       30.0%
BITSFR4              0      0       0       5        0.0%
SFR4                 0      0       0       5        0.0%
BITBANK1            50      0       0       6        0.0%
BITSFR5              0      0       0       6        0.0%
SFR5                 0      0       0       6        0.0%
BANK1               50      0       0       7        0.0%
BITSFR6              0      0       0       7        0.0%
SFR6                 0      0       0       7        0.0%
BITBANK2            50      0       0       8        0.0%
BITSFR7              0      0       0       8        0.0%
SFR7                 0      0       0       8        0.0%
BANK2               50      0       0       9        0.0%
BITSFR8              0      0       0       9        0.0%
SFR8                 0      0       0       9        0.0%
BITBANK3            50      0       0      10        0.0%
BITSFR9              0      0       0      10        0.0%
SFR9                 0      0       0      10        0.0%
BANK3               50      0       0      11        0.0%
BITSFR10             0      0       0      11        0.0%
SFR10                0      0       0      11        0.0%
BITBANK4            50      0       0      12        0.0%
BITSFR11             0      0       0      12        0.0%
SFR11                0      0       0      12        0.0%
BANK4               50      0       0      13        0.0%
BITSFR12             0      0       0      13        0.0%
SFR12                0      0       0      13        0.0%
BITBANK5            50      0       0      14        0.0%
BITSFR13             0      0       0      14        0.0%
SFR13                0      0       0      14        0.0%
BANK5               50      0       0      15        0.0%
BITSFR14             0      0       0      15        0.0%
SFR14                0      0       0      15        0.0%
BITBANK6            50      0       0      16        0.0%
BITSFR15             0      0       0      16        0.0%
SFR15                0      0       0      16        0.0%
BANK6               50      0       0      17        0.0%
BITSFR16             0      0       0      17        0.0%
SFR16                0      0       0      17        0.0%
BITBANK7            50      0       0      18        0.0%
BITSFR17             0      0       0      18        0.0%
SFR17                0      0       0      18        0.0%
BANK7               50      0       0      19        0.0%
BITSFR18             0      0       0      19        0.0%
SFR18                0      0       0      19        0.0%
BITSFR19             0      0       0      20        0.0%
SFR19                0      0       0      20        0.0%
ABS                  0      0      25      20        0.0%
BITBANK8            50      0       0      21        0.0%
BITSFR20             0      0       0      21        0.0%
SFR20                0      0       0      21        0.0%
BANK8               50      0       0      22        0.0%
BITSFR21             0      0       0      22        0.0%
SFR21                0      0       0      22        0.0%
BITBANK9            50      0       0      23        0.0%
BITSFR22             0      0       0      23        0.0%
SFR22                0      0       0      23        0.0%
BANK9               50      0       0      24        0.0%
BITSFR23             0      0       0      24        0.0%
SFR23                0      0       0      24        0.0%
BITBANK10           50      0       0      25        0.0%
BITSFR24             0      0       0      25        0.0%
SFR24                0      0       0      25        0.0%
BANK10              50      0       0      26        0.0%
BITSFR25             0      0       0      26        0.0%
SFR25                0      0       0      26        0.0%
BITBANK11           50      0       0      27        0.0%
BITSFR26             0      0       0      27        0.0%
SFR26                0      0       0      27        0.0%
BITSFR27             0      0       0      28        0.0%
SFR27                0      0       0      28        0.0%
BANK11               0      0       0      28        0.0%
BITBANK12           30      0       0      29        0.0%
BITSFR28             0      0       0      29        0.0%
SFR28                0      0       0      29        0.0%
BITSFR29             0      0       0      30        0.0%
SFR29                0      0       0      30        0.0%
BANK12               0      0       0      30        0.0%
BITSFR30             0      0       0      31        0.0%
SFR30                0      0       0      31        0.0%
DATA                 0      0      25      31        0.0%
BITSFR31             0      0       0      32        0.0%
SFR31                0      0       0      32        0.0%


Microchip Technology PIC Macro Assembler V2.05 build -831301201 
Symbol Table                                                                                   Sun May 19 15:32:27 2019

             __CFG_CP$OFF 0000           _timer0Interrupt 0004                        l62 00DB  
             __CFG_LVP$ON 0000               ?_LEDProcess 0070                       l145 00F1  
                     l940 013F                       l952 00EA                       l938 0133  
                     _GIE 005F              __CFG_CPD$OFF 0000                       _sec 0029  
            __CFG_BORV$LO 0000                      l1100 00C7                      l1112 0111  
                    l1070 005E                      l1136 00D0                      l1080 0076  
                    l1072 0063                      l1064 004D                      l1092 00BD  
                    l1084 0094                      l1094 00C5                      l1088 009F  
                    STR_1 0186                      STR_2 018F                      STR_3 015B  
         __end_of_LEDinit 015B                      _BRGH 0CF2                      _CREN 0CEC  
                    _PEIE 005E                      _RCIE 048D                      _RCIF 008D  
                    i1l98 002E                      _SPEN 0CEF                      _TRMT 0CF1  
                    _TXEN 0CF5                      _SYNC 0CF4              __CFG_WRT$OFF 0000  
                    _main 00FF                      fsr0h 0005                      indf0 0000  
                    fsr0l 0004                      btemp 007E                      start 0030  
           __CFG_IESO$OFF 0000                     ?_main 0070                     _BRG16 0CFB  
           __CFG_WDTE$OFF 0000                     _RCREG 0199                     _TRISA 008C  
                   _TRISB 008D                     _TXREG 019A            __CFG_FCMEN$OFF 0000  
        __end_of_UARTinit 017A            __CFG_BOREN$OFF 0000                     status 0003  
                   wtemp0 007E       __size_of_LEDProcess 0090   __end_of_timer0Interrupt 0030  
          __CFG_MCLRE$OFF 0000           __initialization 0032              __end_of_main 0118  
                  ??_main 007C            __CFG_PLLEN$OFF 0000                 ??_LEDinit 0071  
                  i1l1038 0027                    _OSCCON 0099                    _TMR0IE 005D  
                  _TMR0IF 005A                    _SPBRGH 019C                    _SPBRGL 019B  
                  _UARTRx 0118                    _UARTTx 00DC            __CFG_PWRTE$OFF 0000  
              _Timer0Init 01A7    __size_of_InterruptInit 0006                    _uartRX 007C  
                  _strlen 012F          __end_of_portInit 019D   __end_of__initialization 0048  
        ?_timer0Interrupt 0070            __pcstackCOMMON 0070                 ?_UARTinit 0070  
            ??_LEDProcess 0034   __size_of_oscillatorInit 0004             _InterruptInit 019D  
              __pbssBANK0 0020                   ?_UARTRx 0070                   ?_UARTTx 0076  
      __end_of_LEDProcess 00DC               ?_Timer0Init 0070                __pmaintext 00FF  
              __pintentry 0004                ??_UARTinit 0071                   ?_strlen 0071  
                 _LEDinit 0146                   _RXDTSEL 08EF            ?_InterruptInit 0070  
                 _TXCKSEL 08EA           __size_of_UARTRx 0017           __size_of_UARTTx 0023  
    UARTRx@receivedString 007A          _fullWordReceived 0033                 ?_portInit 0070  
              _secCounter 0031           __CFG_STVREN$OFF 0000                   _ledData 0020  
                 __ptext1 0197                   __ptext2 01A3                   __ptext3 016C  
                 __ptext4 0118                   __ptext5 01A7                   __ptext6 0146  
                 __ptext7 004C                   __ptext8 00DC                   __ptext9 012F  
         __size_of_strlen 0017       __size_of_Timer0Init 0004                   clrloop0 017B  
    end_of_initialization 0048          __CFG_CLKOUTEN$ON 0000                _uartRXBuff 2370  
              ??_portInit 0071                   strlen@a 0074                   strlen@s 0071  
          _oscillatorInit 01A3          __CFG_FOSC$INTOSC 0000                 _TRISCbits 008E  
         ??_InterruptInit 0071            __end_of_UARTRx 012F            __end_of_UARTTx 00FF  
  __end_of_oscillatorInit 01A7         __size_of_UARTinit 000E          UARTTx@sendString 0076  
          __end_of_strlen 0146       start_initialization 0032                  ??_UARTRx 0079  
                ??_UARTTx 0078              ??_Timer0Init 0071           ?_oscillatorInit 0070  
__size_of_timer0Interrupt 002C                  ??_strlen 0073               __pbssBIGRAM 2370  
             __pbssCOMMON 007C                 ___latbits 0002                  ?_LEDinit 0070  
           __pcstackBANK0 0034        __end_of_Timer0Init 01AB         __size_of_portInit 0006  
                _LATCbits 010E                 clear_ram0 017A                  _UARTinit 016C  
       ??_timer0Interrupt 0070          __size_of_LEDinit 0015                  __ptext10 019D  
   __end_of_InterruptInit 01A3             __size_of_main 0019                  _milliSec 002D  
        ??_oscillatorInit 0071                  _portInit 0197                  int$flags 007E  
              _LEDProcess 004C                  intlevel1 0000             __pstringtext1 015B  
           __pstringtext2 0186             __pstringtext3 018F             __pstringtext4 0000  
              _OPTION_REG 0095  
